
out.elf:     file format elf32-tradlittlemips


Disassembly of section .config_BFC02FF0:

bfc02ff0 <__config_BFC02FF0>:
bfc02ff0:	ff ff fe fa                                         ....

Disassembly of section .config_BFC02FF4:

bfc02ff4 <__config_BFC02FF4>:
bfc02ff4:	d9 79 f8 ff                                         .y..

Disassembly of section .config_BFC02FF8:

bfc02ff8 <__config_BFC02FF8>:
bfc02ff8:	db ce 6c ff                                         ..l.

Disassembly of section .config_BFC02FFC:

bfc02ffc <__config_BFC02FFC>:
bfc02ffc:	ff ff ff 7e                                         ...~

Disassembly of section .reset:

bd001970 <_reset>:
bd001970:	0f40065e 	jal	bd001978 <_startup>
bd001974:	00000000 	nop

bd001978 <_startup>:
bd001978:	401a6000 	mfc0	k0,c0_status
bd00197c:	7f5a04c0 	ext	k0,k0,0x13,0x1
bd001980:	13400005 	beqz	k0,bd001998 <_no_nmi>
bd001984:	00000000 	nop
bd001988:	3c1a9d00 	lui	k0,0x9d00
bd00198c:	275a48a0 	addiu	k0,k0,18592
bd001990:	03400008 	jr	k0
bd001994:	00000000 	nop

bd001998 <_no_nmi>:
bd001998:	3c1da002 	lui	sp,0xa002
bd00199c:	27bdfff8 	addiu	sp,sp,-8
bd0019a0:	3c1ca000 	lui	gp,0xa000
bd0019a4:	279c7ff0 	addiu	gp,gp,32752
bd0019a8:	40096002 	mfc0	t1,c0_srsctl
bd0019ac:	01205820 	add	t3,t1,zero
bd0019b0:	7d2a1e80 	ext	t2,t1,0x1a,0x4
bd0019b4:	7d494984 	ins	t1,t2,0x6,0x4
bd0019b8:	40896002 	mtc0	t1,c0_srsctl
bd0019bc:	000000c0 	ehb
bd0019c0:	41dce000 	wrpgpr	gp,gp
bd0019c4:	408b6002 	mtc0	t3,c0_srsctl
bd0019c8:	000000c0 	ehb
bd0019cc:	3c089d00 	lui	t0,0x9d00
bd0019d0:	25084908 	addiu	t0,t0,18696
bd0019d4:	0100f809 	jalr	t0
bd0019d8:	00000000 	nop

bd0019dc <_start_bss_init>:
bd0019dc:	3c08a000 	lui	t0,0xa000
bd0019e0:	25080008 	addiu	t0,t0,8
bd0019e4:	3c09a000 	lui	t1,0xa000
bd0019e8:	2529000c 	addiu	t1,t1,12
bd0019ec:	10000006 	b	bd001a08 <_bss_check>
bd0019f0:	00000000 	nop

bd0019f4 <_bss_init>:
bd0019f4:	ad000000 	sw	zero,0(t0)
bd0019f8:	ad000004 	sw	zero,4(t0)
bd0019fc:	ad000008 	sw	zero,8(t0)
bd001a00:	ad00000c 	sw	zero,12(t0)
bd001a04:	25080010 	addiu	t0,t0,16

bd001a08 <_bss_check>:
bd001a08:	0109082b 	sltu	at,t0,t1
bd001a0c:	1420fff9 	bnez	at,bd0019f4 <_bss_init>
bd001a10:	00000000 	nop

bd001a14 <_dinit_init>:
bd001a14:	3c089d00 	lui	t0,0x9d00
bd001a18:	25083df4 	addiu	t0,t0,15860
bd001a1c:	8d090000 	lw	t1,0(t0)
bd001a20:	11200018 	beqz	t1,bd001a84 <_dinit_end+0x18>
bd001a24:	25080004 	addiu	t0,t0,4
bd001a28:	8d0a0000 	lw	t2,0(t0)
bd001a2c:	25080004 	addiu	t0,t0,4
bd001a30:	8d0b0000 	lw	t3,0(t0)
bd001a34:	11600009 	beqz	t3,bd001a5c <_dinit_clear>
bd001a38:	25080004 	addiu	t0,t0,4

bd001a3c <_dinit_copy>:
bd001a3c:	910c0000 	lbu	t4,0(t0)
bd001a40:	254affff 	addiu	t2,t2,-1
bd001a44:	25080001 	addiu	t0,t0,1
bd001a48:	a12c0000 	sb	t4,0(t1)
bd001a4c:	1540fffb 	bnez	t2,bd001a3c <_dinit_copy>
bd001a50:	25290001 	addiu	t1,t1,1
bd001a54:	10000005 	b	bd001a6c <_dinit_end>
bd001a58:	00000000 	nop

bd001a5c <_dinit_clear>:
bd001a5c:	a1200000 	sb	zero,0(t1)
bd001a60:	254affff 	addiu	t2,t2,-1
bd001a64:	1540fffd 	bnez	t2,bd001a5c <_dinit_clear>
bd001a68:	25290001 	addiu	t1,t1,1

bd001a6c <_dinit_end>:
bd001a6c:	25080003 	addiu	t0,t0,3
bd001a70:	240afffc 	li	t2,-4
bd001a74:	01484024 	and	t0,t2,t0
bd001a78:	8d090000 	lw	t1,0(t0)
bd001a7c:	1520ffe7 	bnez	t1,bd001a1c <_dinit_init+0x8>
bd001a80:	00000000 	nop
bd001a84:	3c090000 	lui	t1,0x0
bd001a88:	25290000 	addiu	t1,t1,0
bd001a8c:	11200010 	beqz	t1,bd001ad0 <_ramfunc_done>
bd001a90:	00000000 	nop
bd001a94:	3c090002 	lui	t1,0x2
bd001a98:	25290000 	addiu	t1,t1,0
bd001a9c:	3c0abf88 	lui	t2,0xbf88
bd001aa0:	254a2010 	addiu	t2,t2,8208
bd001aa4:	ad490000 	sw	t1,0(t2)
bd001aa8:	3c090002 	lui	t1,0x2
bd001aac:	25290000 	addiu	t1,t1,0
bd001ab0:	3c0abf88 	lui	t2,0xbf88
bd001ab4:	254a2020 	addiu	t2,t2,8224
bd001ab8:	ad490000 	sw	t1,0(t2)
bd001abc:	3c090002 	lui	t1,0x2
bd001ac0:	25290000 	addiu	t1,t1,0
bd001ac4:	3c0abf88 	lui	t2,0xbf88
bd001ac8:	254a2030 	addiu	t2,t2,8240
bd001acc:	ad490000 	sw	t1,0(t2)

bd001ad0 <_ramfunc_done>:
bd001ad0:	40804800 	mtc0	zero,c0_count
bd001ad4:	240affff 	li	t2,-1
bd001ad8:	408a5800 	mtc0	t2,c0_compare
bd001adc:	3c080040 	lui	t0,0x40
bd001ae0:	400a6000 	mfc0	t2,c0_status
bd001ae4:	010a5025 	or	t2,t0,t2
bd001ae8:	408a6000 	mtc0	t2,c0_status
bd001aec:	3c099d00 	lui	t1,0x9d00
bd001af0:	25290000 	addiu	t1,t1,0
bd001af4:	000000c0 	ehb
bd001af8:	40897801 	mtc0	t1,c0_ebase
bd001afc:	3c090000 	lui	t1,0x0
bd001b00:	25290001 	addiu	t1,t1,1
bd001b04:	240a0000 	li	t2,0
bd001b08:	7d2a4944 	ins	t2,t1,0x5,0x5
bd001b0c:	408a6001 	mtc0	t2,c0_intctl
bd001b10:	3c090080 	lui	t1,0x80
bd001b14:	40896800 	mtc0	t1,c0_cause
bd001b18:	40088000 	mfc0	t0,c0_config
bd001b1c:	7d090580 	ext	t1,t0,0x16,0x1
bd001b20:	00094c40 	sll	t1,t1,0x11
bd001b24:	40086000 	mfc0	t0,c0_status
bd001b28:	3c010058 	lui	at,0x58
bd001b2c:	01014024 	and	t0,t0,at
bd001b30:	01284025 	or	t0,t1,t0
bd001b34:	40886000 	mtc0	t0,c0_status
bd001b38:	000000c0 	ehb
bd001b3c:	3c089d00 	lui	t0,0x9d00
bd001b40:	25084910 	addiu	t0,t0,18704
bd001b44:	0100f809 	jalr	t0
bd001b48:	00000000 	nop
bd001b4c:	40086000 	mfc0	t0,c0_status
bd001b50:	3c01ffbf 	lui	at,0xffbf
bd001b54:	3421ffff 	ori	at,at,0xffff
bd001b58:	01014024 	and	t0,t0,at
bd001b5c:	40886000 	mtc0	t0,c0_status
bd001b60:	30840000 	andi	a0,a0,0x0
bd001b64:	30a50000 	andi	a1,a1,0x0
bd001b68:	3c089d00 	lui	t0,0x9d00
bd001b6c:	250845fc 	addiu	t0,t0,17916
bd001b70:	01000008 	jr	t0
bd001b74:	00000000 	nop

Disassembly of section .bev_excpt:

bd001cf0 <_bev_exception>:
bd001cf0:	3c1a9d00 	lui	k0,0x9d00
bd001cf4:	275a469c 	addiu	k0,k0,18076
bd001cf8:	03400008 	jr	k0
bd001cfc:	00000000 	nop

Disassembly of section .app_excpt:

9d000180 <_gen_exception>:
9d000180:	3c1a9d00 	lui	k0,0x9d00
9d000184:	275a40f4 	addiu	k0,k0,16628
9d000188:	03400008 	jr	k0
9d00018c:	00000000 	nop

Disassembly of section .vector_0:

9d000200 <__vector_dispatch_0>:
9d000200:	0b4011cb 	j	9d00472c <.LFE0>
9d000204:	00000000 	nop

Disassembly of section .vector_1:

9d000220 <__vector_dispatch_1>:
9d000220:	0b4011cb 	j	9d00472c <.LFE0>
9d000224:	00000000 	nop

Disassembly of section .vector_2:

9d000240 <__vector_dispatch_2>:
9d000240:	0b4011cb 	j	9d00472c <.LFE0>
9d000244:	00000000 	nop

Disassembly of section .vector_3:

9d000260 <__vector_dispatch_3>:
9d000260:	0b4011cb 	j	9d00472c <.LFE0>
9d000264:	00000000 	nop

Disassembly of section .vector_4:

9d000280 <__vector_dispatch_4>:
9d000280:	0b4011cb 	j	9d00472c <.LFE0>
9d000284:	00000000 	nop

Disassembly of section .vector_5:

9d0002a0 <__vector_dispatch_5>:
9d0002a0:	0b4011cb 	j	9d00472c <.LFE0>
9d0002a4:	00000000 	nop

Disassembly of section .vector_6:

9d0002c0 <__vector_dispatch_6>:
9d0002c0:	0b4011cb 	j	9d00472c <.LFE0>
9d0002c4:	00000000 	nop

Disassembly of section .vector_7:

9d0002e0 <__vector_dispatch_7>:
9d0002e0:	0b4011cb 	j	9d00472c <.LFE0>
9d0002e4:	00000000 	nop

Disassembly of section .vector_8:

9d000300 <__vector_dispatch_8>:
9d000300:	0b4011cb 	j	9d00472c <.LFE0>
9d000304:	00000000 	nop

Disassembly of section .vector_9:

9d000320 <__vector_dispatch_9>:
9d000320:	0b4011cb 	j	9d00472c <.LFE0>
9d000324:	00000000 	nop

Disassembly of section .vector_10:

9d000340 <__vector_dispatch_10>:
9d000340:	0b4011cb 	j	9d00472c <.LFE0>
9d000344:	00000000 	nop

Disassembly of section .vector_11:

9d000360 <__vector_dispatch_11>:
9d000360:	0b4011cb 	j	9d00472c <.LFE0>
9d000364:	00000000 	nop

Disassembly of section .vector_12:

9d000380 <__vector_dispatch_12>:
9d000380:	0b4011cb 	j	9d00472c <.LFE0>
9d000384:	00000000 	nop

Disassembly of section .vector_13:

9d0003a0 <__vector_dispatch_13>:
9d0003a0:	0b4011cb 	j	9d00472c <.LFE0>
9d0003a4:	00000000 	nop

Disassembly of section .vector_14:

9d0003c0 <__vector_dispatch_14>:
9d0003c0:	0b4011cb 	j	9d00472c <.LFE0>
9d0003c4:	00000000 	nop

Disassembly of section .vector_15:

9d0003e0 <__vector_dispatch_15>:
9d0003e0:	0b4011cb 	j	9d00472c <.LFE0>
9d0003e4:	00000000 	nop

Disassembly of section .vector_16:

9d000400 <__vector_dispatch_16>:
9d000400:	0b4011cb 	j	9d00472c <.LFE0>
9d000404:	00000000 	nop

Disassembly of section .vector_17:

9d000420 <__vector_dispatch_17>:
9d000420:	0b4011cb 	j	9d00472c <.LFE0>
9d000424:	00000000 	nop

Disassembly of section .vector_18:

9d000440 <__vector_dispatch_18>:
9d000440:	0b4011cb 	j	9d00472c <.LFE0>
9d000444:	00000000 	nop

Disassembly of section .vector_19:

9d000460 <__vector_dispatch_19>:
9d000460:	0b4011cb 	j	9d00472c <.LFE0>
9d000464:	00000000 	nop

Disassembly of section .vector_20:

9d000480 <__vector_dispatch_20>:
9d000480:	0b4011cb 	j	9d00472c <.LFE0>
9d000484:	00000000 	nop

Disassembly of section .vector_21:

9d0004a0 <__vector_dispatch_21>:
9d0004a0:	0b4011cb 	j	9d00472c <.LFE0>
9d0004a4:	00000000 	nop

Disassembly of section .vector_22:

9d0004c0 <__vector_dispatch_22>:
9d0004c0:	0b4011cb 	j	9d00472c <.LFE0>
9d0004c4:	00000000 	nop

Disassembly of section .vector_23:

9d0004e0 <__vector_dispatch_23>:
9d0004e0:	0b4011cb 	j	9d00472c <.LFE0>
9d0004e4:	00000000 	nop

Disassembly of section .vector_24:

9d000500 <__vector_dispatch_24>:
9d000500:	0b4011cb 	j	9d00472c <.LFE0>
9d000504:	00000000 	nop

Disassembly of section .vector_25:

9d000520 <__vector_dispatch_25>:
9d000520:	0b4011cb 	j	9d00472c <.LFE0>
9d000524:	00000000 	nop

Disassembly of section .vector_26:

9d000540 <__vector_dispatch_26>:
9d000540:	0b4011cb 	j	9d00472c <.LFE0>
9d000544:	00000000 	nop

Disassembly of section .vector_27:

9d000560 <__vector_dispatch_27>:
9d000560:	0b4011cb 	j	9d00472c <.LFE0>
9d000564:	00000000 	nop

Disassembly of section .vector_28:

9d000580 <__vector_dispatch_28>:
9d000580:	0b4011cb 	j	9d00472c <.LFE0>
9d000584:	00000000 	nop

Disassembly of section .vector_29:

9d0005a0 <__vector_dispatch_29>:
9d0005a0:	0b4011cb 	j	9d00472c <.LFE0>
9d0005a4:	00000000 	nop

Disassembly of section .vector_30:

9d0005c0 <__vector_dispatch_30>:
9d0005c0:	0b4011cb 	j	9d00472c <.LFE0>
9d0005c4:	00000000 	nop

Disassembly of section .vector_31:

9d0005e0 <__vector_dispatch_31>:
9d0005e0:	0b4011cb 	j	9d00472c <.LFE0>
9d0005e4:	00000000 	nop

Disassembly of section .vector_32:

9d000600 <__vector_dispatch_32>:
9d000600:	0b4011cb 	j	9d00472c <.LFE0>
9d000604:	00000000 	nop

Disassembly of section .vector_33:

9d000620 <__vector_dispatch_33>:
9d000620:	0b4011cb 	j	9d00472c <.LFE0>
9d000624:	00000000 	nop

Disassembly of section .vector_34:

9d000640 <__vector_dispatch_34>:
9d000640:	0b4011cb 	j	9d00472c <.LFE0>
9d000644:	00000000 	nop

Disassembly of section .vector_35:

9d000660 <__vector_dispatch_35>:
9d000660:	0b4011cb 	j	9d00472c <.LFE0>
9d000664:	00000000 	nop

Disassembly of section .vector_36:

9d000680 <__vector_dispatch_36>:
9d000680:	0b4011cb 	j	9d00472c <.LFE0>
9d000684:	00000000 	nop

Disassembly of section .vector_37:

9d0006a0 <__vector_dispatch_37>:
9d0006a0:	0b4011cb 	j	9d00472c <.LFE0>
9d0006a4:	00000000 	nop

Disassembly of section .vector_38:

9d0006c0 <__vector_dispatch_38>:
9d0006c0:	0b4011cb 	j	9d00472c <.LFE0>
9d0006c4:	00000000 	nop

Disassembly of section .vector_39:

9d0006e0 <__vector_dispatch_39>:
9d0006e0:	0b4011cb 	j	9d00472c <.LFE0>
9d0006e4:	00000000 	nop

Disassembly of section .vector_40:

9d000700 <__vector_dispatch_40>:
9d000700:	0b4011cb 	j	9d00472c <.LFE0>
9d000704:	00000000 	nop

Disassembly of section .vector_41:

9d000720 <__vector_dispatch_41>:
9d000720:	0b4011cb 	j	9d00472c <.LFE0>
9d000724:	00000000 	nop

Disassembly of section .vector_42:

9d000740 <__vector_dispatch_42>:
9d000740:	0b4011cb 	j	9d00472c <.LFE0>
9d000744:	00000000 	nop

Disassembly of section .vector_43:

9d000760 <__vector_dispatch_43>:
9d000760:	0b4011cb 	j	9d00472c <.LFE0>
9d000764:	00000000 	nop

Disassembly of section .vector_44:

9d000780 <__vector_dispatch_44>:
9d000780:	0b4011cb 	j	9d00472c <.LFE0>
9d000784:	00000000 	nop

Disassembly of section .vector_45:

9d0007a0 <__vector_dispatch_45>:
9d0007a0:	0b4011cb 	j	9d00472c <.LFE0>
9d0007a4:	00000000 	nop

Disassembly of section .vector_46:

9d0007c0 <__vector_dispatch_46>:
9d0007c0:	0b4011cb 	j	9d00472c <.LFE0>
9d0007c4:	00000000 	nop

Disassembly of section .vector_47:

9d0007e0 <__vector_dispatch_47>:
9d0007e0:	0b4011cb 	j	9d00472c <.LFE0>
9d0007e4:	00000000 	nop

Disassembly of section .vector_48:

9d000800 <__vector_dispatch_48>:
9d000800:	0b4011cb 	j	9d00472c <.LFE0>
9d000804:	00000000 	nop

Disassembly of section .vector_49:

9d000820 <__vector_dispatch_49>:
9d000820:	0b4011cb 	j	9d00472c <.LFE0>
9d000824:	00000000 	nop

Disassembly of section .vector_50:

9d000840 <__vector_dispatch_50>:
9d000840:	0b4011cb 	j	9d00472c <.LFE0>
9d000844:	00000000 	nop

Disassembly of section .vector_51:

9d000860 <__vector_dispatch_51>:
9d000860:	0b4011cb 	j	9d00472c <.LFE0>
9d000864:	00000000 	nop

Disassembly of section ._debug_exception:

bfc00480 <__DbgExecReturn>:
bfc00480:	409bf800 	mtc0	k1,c0_desave
bfc00484:	000000c0 	ehb
bfc00488:	3c1b9d00 	lui	k1,0x9d00
bfc0048c:	277b4774 	addiu	k1,k1,18292
bfc00490:	13600002 	beqz	k1,bfc0049c <__DbgExecReturn+0x1c>
bfc00494:	00000000 	nop
bfc00498:	409bc000 	mtc0	k1,c0_depc
bfc0049c:	401bf800 	mfc0	k1,c0_desave
bfc004a0:	000000c0 	ehb
bfc004a4:	4200001f 	deret
bfc004a8:	00000000 	nop

Disassembly of section .text._do_print_cdnopuxX:

9d001e00 <_do_print_cdnopuxX>:
9d001e00:	27bdff68 	addiu	sp,sp,-152
9d001e04:	afbf0094 	sw	ra,148(sp)
9d001e08:	afbe0090 	sw	s8,144(sp)
9d001e0c:	afb7008c 	sw	s7,140(sp)
9d001e10:	afb60088 	sw	s6,136(sp)
9d001e14:	afb50084 	sw	s5,132(sp)
9d001e18:	afb40080 	sw	s4,128(sp)
9d001e1c:	afb3007c 	sw	s3,124(sp)
9d001e20:	afb20078 	sw	s2,120(sp)
9d001e24:	afb10074 	sw	s1,116(sp)
9d001e28:	afb00070 	sw	s0,112(sp)
9d001e2c:	afa40098 	sw	a0,152(sp)
9d001e30:	8c820018 	lw	v0,24(a0)
9d001e34:	00a09021 	move	s2,a1
9d001e38:	24050001 	li	a1,1
9d001e3c:	8c420010 	lw	v0,16(v0)
9d001e40:	0040f809 	jalr	v0
9d001e44:	afa600a0 	sw	a2,160(sp)
9d001e48:	104001bd 	beqz	v0,9d002540 <_do_print_cdnopuxX+0x740>
9d001e4c:	27a20058 	addiu	v0,sp,88
9d001e50:	afa00060 	sw	zero,96(sp)
9d001e54:	afa20058 	sw	v0,88(sp)
9d001e58:	82440000 	lb	a0,0(s2)
9d001e5c:	1080000d 	beqz	a0,9d001e94 <_do_print_cdnopuxX+0x94>
9d001e60:	26500001 	addiu	s0,s2,1
9d001e64:	24020025 	li	v0,37
9d001e68:	5082001c 	beql	a0,v0,9d001edc <_do_print_cdnopuxX+0xdc>
9d001e6c:	82420001 	lb	v0,1(s2)
9d001e70:	0f4010d4 	jal	9d004350 <fputc>
9d001e74:	8fa50098 	lw	a1,152(sp)
9d001e78:	8fa30060 	lw	v1,96(sp)
9d001e7c:	24630001 	addiu	v1,v1,1
9d001e80:	afa30060 	sw	v1,96(sp)
9d001e84:	02009021 	move	s2,s0
9d001e88:	82440000 	lb	a0,0(s2)
9d001e8c:	1480fff5 	bnez	a0,9d001e64 <_do_print_cdnopuxX+0x64>
9d001e90:	26500001 	addiu	s0,s2,1
9d001e94:	8fa40098 	lw	a0,152(sp)
9d001e98:	94820010 	lhu	v0,16(a0)
9d001e9c:	30420040 	andi	v0,v0,0x40
9d001ea0:	144001a8 	bnez	v0,9d002544 <_do_print_cdnopuxX+0x744>
9d001ea4:	2402ffff 	li	v0,-1
9d001ea8:	8fa20060 	lw	v0,96(sp)
9d001eac:	8fbf0094 	lw	ra,148(sp)
9d001eb0:	8fbe0090 	lw	s8,144(sp)
9d001eb4:	8fb7008c 	lw	s7,140(sp)
9d001eb8:	8fb60088 	lw	s6,136(sp)
9d001ebc:	8fb50084 	lw	s5,132(sp)
9d001ec0:	8fb40080 	lw	s4,128(sp)
9d001ec4:	8fb3007c 	lw	s3,124(sp)
9d001ec8:	8fb20078 	lw	s2,120(sp)
9d001ecc:	8fb10074 	lw	s1,116(sp)
9d001ed0:	8fb00070 	lw	s0,112(sp)
9d001ed4:	03e00008 	jr	ra
9d001ed8:	27bd0098 	addiu	sp,sp,152
9d001edc:	10440177 	beq	v0,a0,9d0024bc <_do_print_cdnopuxX+0x6bc>
9d001ee0:	0000b821 	move	s7,zero
9d001ee4:	2403002d 	li	v1,45
9d001ee8:	2404002b 	li	a0,43
9d001eec:	24050020 	li	a1,32
9d001ef0:	24060023 	li	a2,35
9d001ef4:	1043000e 	beq	v0,v1,9d001f30 <_do_print_cdnopuxX+0x130>
9d001ef8:	24070030 	li	a3,48
9d001efc:	50440010 	beql	v0,a0,9d001f40 <_do_print_cdnopuxX+0x140>
9d001f00:	36f70002 	ori	s7,s7,0x2
9d001f04:	50450011 	beql	v0,a1,9d001f4c <_do_print_cdnopuxX+0x14c>
9d001f08:	36f70001 	ori	s7,s7,0x1
9d001f0c:	50460012 	beql	v0,a2,9d001f58 <_do_print_cdnopuxX+0x158>
9d001f10:	36f70800 	ori	s7,s7,0x800
9d001f14:	54470013 	bnel	v0,a3,9d001f64 <_do_print_cdnopuxX+0x164>
9d001f18:	2403002a 	li	v1,42
9d001f1c:	36f70004 	ori	s7,s7,0x4
9d001f20:	26100001 	addiu	s0,s0,1
9d001f24:	82020000 	lb	v0,0(s0)
9d001f28:	1443fff4 	bne	v0,v1,9d001efc <_do_print_cdnopuxX+0xfc>
9d001f2c:	00000000 	nop
9d001f30:	36f70008 	ori	s7,s7,0x8
9d001f34:	26100001 	addiu	s0,s0,1
9d001f38:	0b4007ca 	j	9d001f28 <_do_print_cdnopuxX+0x128>
9d001f3c:	82020000 	lb	v0,0(s0)
9d001f40:	26100001 	addiu	s0,s0,1
9d001f44:	0b4007ca 	j	9d001f28 <_do_print_cdnopuxX+0x128>
9d001f48:	82020000 	lb	v0,0(s0)
9d001f4c:	26100001 	addiu	s0,s0,1
9d001f50:	0b4007ca 	j	9d001f28 <_do_print_cdnopuxX+0x128>
9d001f54:	82020000 	lb	v0,0(s0)
9d001f58:	26100001 	addiu	s0,s0,1
9d001f5c:	0b4007ca 	j	9d001f28 <_do_print_cdnopuxX+0x128>
9d001f60:	82020000 	lb	v0,0(s0)
9d001f64:	104300fe 	beq	v0,v1,9d002360 <_do_print_cdnopuxX+0x560>
9d001f68:	02002021 	move	a0,s0
9d001f6c:	2443ffd0 	addiu	v1,v0,-48
9d001f70:	2c63000a 	sltiu	v1,v1,10
9d001f74:	1060000b 	beqz	v1,9d001fa4 <_do_print_cdnopuxX+0x1a4>
9d001f78:	0000b021 	move	s6,zero
9d001f7c:	00161840 	sll	v1,s6,0x1
9d001f80:	001650c0 	sll	t2,s6,0x3
9d001f84:	006a5021 	addu	t2,v1,t2
9d001f88:	26100001 	addiu	s0,s0,1
9d001f8c:	01425021 	addu	t2,t2,v0
9d001f90:	82020000 	lb	v0,0(s0)
9d001f94:	2443ffd0 	addiu	v1,v0,-48
9d001f98:	2c63000a 	sltiu	v1,v1,10
9d001f9c:	1460fff7 	bnez	v1,9d001f7c <_do_print_cdnopuxX+0x17c>
9d001fa0:	2556ffd0 	addiu	s6,t2,-48
9d001fa4:	2403002e 	li	v1,46
9d001fa8:	104300f9 	beq	v0,v1,9d002390 <_do_print_cdnopuxX+0x590>
9d001fac:	241effff 	li	s8,-1
9d001fb0:	24030068 	li	v1,104
9d001fb4:	5043010c 	beql	v0,v1,9d0023e8 <_do_print_cdnopuxX+0x5e8>
9d001fb8:	82030001 	lb	v1,1(s0)
9d001fbc:	2403006c 	li	v1,108
9d001fc0:	1043011a 	beq	v0,v1,9d00242c <_do_print_cdnopuxX+0x62c>
9d001fc4:	24030071 	li	v1,113
9d001fc8:	10430144 	beq	v0,v1,9d0024dc <_do_print_cdnopuxX+0x6dc>
9d001fcc:	32e40002 	andi	a0,s7,0x2
9d001fd0:	32e3fffe 	andi	v1,s7,0xfffe
9d001fd4:	0064b80b 	movn	s7,v1,a0
9d001fd8:	2442ffbc 	addiu	v0,v0,-68
9d001fdc:	32e50008 	andi	a1,s7,0x8
9d001fe0:	32e4fffb 	andi	a0,s7,0xfffb
9d001fe4:	2c430035 	sltiu	v1,v0,53
9d001fe8:	26120001 	addiu	s2,s0,1
9d001fec:	1060010d 	beqz	v1,9d002424 <_do_print_cdnopuxX+0x624>
9d001ff0:	0085b80b 	movn	s7,a0,a1
9d001ff4:	00021080 	sll	v0,v0,0x2
9d001ff8:	3c049d00 	lui	a0,0x9d00
9d001ffc:	24842010 	addiu	a0,a0,8208
9d002000:	00821021 	addu	v0,a0,v0
9d002004:	8c420000 	lw	v0,0(v0)
9d002008:	00400008 	jr	v0
9d00200c:	00000000 	nop
9d002010:	9d0022d8 	0x9d0022d8
9d002014:	9d002424 	0x9d002424
9d002018:	9d002424 	0x9d002424
9d00201c:	9d002424 	0x9d002424
9d002020:	9d002424 	0x9d002424
9d002024:	9d002424 	0x9d002424
9d002028:	9d002424 	0x9d002424
9d00202c:	9d002424 	0x9d002424
9d002030:	9d002424 	0x9d002424
9d002034:	9d002424 	0x9d002424
9d002038:	9d002424 	0x9d002424
9d00203c:	9d00269c 	0x9d00269c
9d002040:	9d00227c 	0x9d00227c
9d002044:	9d002424 	0x9d002424
9d002048:	9d002424 	0x9d002424
9d00204c:	9d002424 	0x9d002424
9d002050:	9d002424 	0x9d002424
9d002054:	9d0020e4 	0x9d0020e4
9d002058:	9d002424 	0x9d002424
9d00205c:	9d002424 	0x9d002424
9d002060:	9d0022ec 	0x9d0022ec
9d002064:	9d002424 	0x9d002424
9d002068:	9d002424 	0x9d002424
9d00206c:	9d002424 	0x9d002424
9d002070:	9d002424 	0x9d002424
9d002074:	9d002424 	0x9d002424
9d002078:	9d002424 	0x9d002424
9d00207c:	9d002424 	0x9d002424
9d002080:	9d002424 	0x9d002424
9d002084:	9d002424 	0x9d002424
9d002088:	9d002424 	0x9d002424
9d00208c:	9d002668 	0x9d002668
9d002090:	9d0022dc 	0x9d0022dc
9d002094:	9d002424 	0x9d002424
9d002098:	9d002424 	0x9d002424
9d00209c:	9d002424 	0x9d002424
9d0020a0:	9d002424 	0x9d002424
9d0020a4:	9d0022dc 	0x9d0022dc
9d0020a8:	9d002424 	0x9d002424
9d0020ac:	9d002424 	0x9d002424
9d0020b0:	9d002424 	0x9d002424
9d0020b4:	9d002424 	0x9d002424
9d0020b8:	9d0025ac 	0x9d0025ac
9d0020bc:	9d0025a4 	0x9d0025a4
9d0020c0:	9d002280 	0x9d002280
9d0020c4:	9d002424 	0x9d002424
9d0020c8:	9d002424 	0x9d002424
9d0020cc:	9d0025f4 	0x9d0025f4
9d0020d0:	9d002424 	0x9d002424
9d0020d4:	9d0020e8 	0x9d0020e8
9d0020d8:	9d002424 	0x9d002424
9d0020dc:	9d002424 	0x9d002424
9d0020e0:	9d0022f0 	0x9d0022f0
9d0020e4:	36f70010 	ori	s7,s7,0x10
9d0020e8:	32f7f7ff 	andi	s7,s7,0xf7ff
9d0020ec:	2410000a 	li	s0,10
9d0020f0:	2402ffff 	li	v0,-1
9d0020f4:	13c20067 	beq	s8,v0,9d002294 <_do_print_cdnopuxX+0x494>
9d0020f8:	00002821 	move	a1,zero
9d0020fc:	32f7fffb 	andi	s7,s7,0xfffb
9d002100:	27c5ffff 	addiu	a1,s8,-1
9d002104:	32e200c0 	andi	v0,s7,0xc0
9d002108:	10400066 	beqz	v0,9d0022a4 <_do_print_cdnopuxX+0x4a4>
9d00210c:	afa20064 	sw	v0,100(sp)
9d002110:	7c171620 	seh	v0,s7
9d002114:	04400182 	bltz	v0,9d002720 <_do_print_cdnopuxX+0x920>
9d002118:	32e20010 	andi	v0,s7,0x10
9d00211c:	104000f3 	beqz	v0,9d0024ec <_do_print_cdnopuxX+0x6ec>
9d002120:	32e20041 	andi	v0,s7,0x41
9d002124:	8fa400a0 	lw	a0,160(sp)
9d002128:	8c950000 	lw	s5,0(a0)
9d00212c:	24840004 	addiu	a0,a0,4
9d002130:	afa400a0 	sw	a0,160(sp)
9d002134:	0015a7c3 	sra	s4,s5,0x1f
9d002138:	02801021 	move	v0,s4
9d00213c:	0440010d 	bltz	v0,9d002574 <_do_print_cdnopuxX+0x774>
9d002140:	02a01821 	move	v1,s5
9d002144:	afa0006c 	sw	zero,108(sp)
9d002148:	128000bf 	beqz	s4,9d002448 <_do_print_cdnopuxX+0x648>
9d00214c:	02b41025 	or	v0,s5,s4
9d002150:	10400195 	beqz	v0,9d0027a8 <_do_print_cdnopuxX+0x9a8>
9d002154:	27a20057 	addiu	v0,sp,87
9d002158:	afa20068 	sw	v0,104(sp)
9d00215c:	32e30020 	andi	v1,s7,0x20
9d002160:	24040037 	li	a0,55
9d002164:	00108fc3 	sra	s1,s0,0x1f
9d002168:	00409821 	move	s3,v0
9d00216c:	24020057 	li	v0,87
9d002170:	0043200a 	movz	a0,v0,v1
9d002174:	afa4005c 	sw	a0,92(sp)
9d002178:	02a02021 	move	a0,s5
9d00217c:	02802821 	move	a1,s4
9d002180:	02003021 	move	a2,s0
9d002184:	0f400bfa 	jal	9d002fe8 <__umoddi3>
9d002188:	02203821 	move	a3,s1
9d00218c:	2843000a 	slti	v1,v0,10
9d002190:	24460030 	addiu	a2,v0,48
9d002194:	8fa4005c 	lw	a0,92(sp)
9d002198:	00441021 	addu	v0,v0,a0
9d00219c:	0043300a 	movz	a2,v0,v1
9d0021a0:	2673ffff 	addiu	s3,s3,-1
9d0021a4:	02a02021 	move	a0,s5
9d0021a8:	02802821 	move	a1,s4
9d0021ac:	a2660001 	sb	a2,1(s3)
9d0021b0:	02003021 	move	a2,s0
9d0021b4:	0f400d13 	jal	9d00344c <__udivdi3>
9d0021b8:	02203821 	move	a3,s1
9d0021bc:	00622025 	or	a0,v1,v0
9d0021c0:	0040a821 	move	s5,v0
9d0021c4:	0060a021 	move	s4,v1
9d0021c8:	1480ffeb 	bnez	a0,9d002178 <_do_print_cdnopuxX+0x378>
9d0021cc:	27deffff 	addiu	s8,s8,-1
9d0021d0:	27c5ffff 	addiu	a1,s8,-1
9d0021d4:	04a0000a 	bltz	a1,9d002200 <_do_print_cdnopuxX+0x400>
9d0021d8:	02601021 	move	v0,s3
9d0021dc:	2664ffff 	addiu	a0,s3,-1
9d0021e0:	00852023 	subu	a0,a0,a1
9d0021e4:	24030030 	li	v1,48
9d0021e8:	a0430000 	sb	v1,0(v0)
9d0021ec:	2442ffff 	addiu	v0,v0,-1
9d0021f0:	5444fffe 	bnel	v0,a0,9d0021ec <_do_print_cdnopuxX+0x3ec>
9d0021f4:	a0430000 	sb	v1,0(v0)
9d0021f8:	00052827 	nor	a1,zero,a1
9d0021fc:	02659821 	addu	s3,s3,a1
9d002200:	32e20004 	andi	v0,s7,0x4
9d002204:	1440003c 	bnez	v0,9d0022f8 <_do_print_cdnopuxX+0x4f8>
9d002208:	32e40800 	andi	a0,s7,0x800
9d00220c:	3084ffff 	andi	a0,a0,0xffff
9d002210:	50800007 	beqzl	a0,9d002230 <_do_print_cdnopuxX+0x430>
9d002214:	8fa30064 	lw	v1,100(sp)
9d002218:	24020008 	li	v0,8
9d00221c:	12020131 	beq	s0,v0,9d0026e4 <_do_print_cdnopuxX+0x8e4>
9d002220:	24020010 	li	v0,16
9d002224:	12020158 	beq	s0,v0,9d002788 <_do_print_cdnopuxX+0x988>
9d002228:	32e40020 	andi	a0,s7,0x20
9d00222c:	8fa30064 	lw	v1,100(sp)
9d002230:	10600007 	beqz	v1,9d002250 <_do_print_cdnopuxX+0x450>
9d002234:	8fa4006c 	lw	a0,108(sp)
9d002238:	1480009c 	bnez	a0,9d0024ac <_do_print_cdnopuxX+0x6ac>
9d00223c:	32e20002 	andi	v0,s7,0x2
9d002240:	10400003 	beqz	v0,9d002250 <_do_print_cdnopuxX+0x450>
9d002244:	2402002b 	li	v0,43
9d002248:	a2620000 	sb	v0,0(s3)
9d00224c:	2673ffff 	addiu	s3,s3,-1
9d002250:	26650001 	addiu	a1,s3,1
9d002254:	afb70010 	sw	s7,16(sp)
9d002258:	8fa40098 	lw	a0,152(sp)
9d00225c:	8fa20058 	lw	v0,88(sp)
9d002260:	00453023 	subu	a2,v0,a1
9d002264:	0f400f2e 	jal	9d003cb8 <.LFE8>
9d002268:	02c03821 	move	a3,s6
9d00226c:	8fa30060 	lw	v1,96(sp)
9d002270:	00621821 	addu	v1,v1,v0
9d002274:	0b400796 	j	9d001e58 <_do_print_cdnopuxX+0x58>
9d002278:	afa30060 	sw	v1,96(sp)
9d00227c:	36f70020 	ori	s7,s7,0x20
9d002280:	36f70810 	ori	s7,s7,0x810
9d002284:	2402ffff 	li	v0,-1
9d002288:	17c2ff9c 	bne	s8,v0,9d0020fc <_do_print_cdnopuxX+0x2fc>
9d00228c:	24100010 	li	s0,16
9d002290:	00002821 	move	a1,zero
9d002294:	241e0001 	li	s8,1
9d002298:	32e200c0 	andi	v0,s7,0xc0
9d00229c:	1440ff9c 	bnez	v0,9d002110 <_do_print_cdnopuxX+0x310>
9d0022a0:	afa20064 	sw	v0,100(sp)
9d0022a4:	7c171620 	seh	v0,s7
9d0022a8:	04400115 	bltz	v0,9d002700 <_do_print_cdnopuxX+0x900>
9d0022ac:	8fa400a0 	lw	a0,160(sp)
9d0022b0:	32e20010 	andi	v0,s7,0x10
9d0022b4:	50400099 	beqzl	v0,9d00251c <_do_print_cdnopuxX+0x71c>
9d0022b8:	32e20041 	andi	v0,s7,0x41
9d0022bc:	8fa400a0 	lw	a0,160(sp)
9d0022c0:	8c950000 	lw	s5,0(a0)
9d0022c4:	0000a021 	move	s4,zero
9d0022c8:	24840004 	addiu	a0,a0,4
9d0022cc:	afa400a0 	sw	a0,160(sp)
9d0022d0:	0b400852 	j	9d002148 <_do_print_cdnopuxX+0x348>
9d0022d4:	afa0006c 	sw	zero,108(sp)
9d0022d8:	36f70010 	ori	s7,s7,0x10
9d0022dc:	32e8f7ff 	andi	t0,s7,0xf7ff
9d0022e0:	351700c0 	ori	s7,t0,0xc0
9d0022e4:	0b40083c 	j	9d0020f0 <_do_print_cdnopuxX+0x2f0>
9d0022e8:	2410000a 	li	s0,10
9d0022ec:	36f70020 	ori	s7,s7,0x20
9d0022f0:	0b40083c 	j	9d0020f0 <_do_print_cdnopuxX+0x2f0>
9d0022f4:	24100010 	li	s0,16
9d0022f8:	8fa20068 	lw	v0,104(sp)
9d0022fc:	02621823 	subu	v1,s3,v0
9d002300:	3084ffff 	andi	a0,a0,0xffff
9d002304:	10800006 	beqz	a0,9d002320 <_do_print_cdnopuxX+0x520>
9d002308:	02c31821 	addu	v1,s6,v1
9d00230c:	24020008 	li	v0,8
9d002310:	1202012d 	beq	s0,v0,9d0027c8 <_do_print_cdnopuxX+0x9c8>
9d002314:	2462fffe 	addiu	v0,v1,-2
9d002318:	3a050010 	xori	a1,s0,0x10
9d00231c:	0045180a 	movz	v1,v0,a1
9d002320:	8fa20064 	lw	v0,100(sp)
9d002324:	10400004 	beqz	v0,9d002338 <_do_print_cdnopuxX+0x538>
9d002328:	8fa2006c 	lw	v0,108(sp)
9d00232c:	10400099 	beqz	v0,9d002594 <_do_print_cdnopuxX+0x794>
9d002330:	32e20003 	andi	v0,s7,0x3
9d002334:	2463ffff 	addiu	v1,v1,-1
9d002338:	1860ffb5 	blez	v1,9d002210 <_do_print_cdnopuxX+0x410>
9d00233c:	02601021 	move	v0,s3
9d002340:	02634823 	subu	t1,s3,v1
9d002344:	24030030 	li	v1,48
9d002348:	a0430000 	sb	v1,0(v0)
9d00234c:	2442ffff 	addiu	v0,v0,-1
9d002350:	5522fffe 	bnel	t1,v0,9d00234c <_do_print_cdnopuxX+0x54c>
9d002354:	a0430000 	sb	v1,0(v0)
9d002358:	0b400884 	j	9d002210 <_do_print_cdnopuxX+0x410>
9d00235c:	01209821 	move	s3,t1
9d002360:	8fa200a0 	lw	v0,160(sp)
9d002364:	8c560000 	lw	s6,0(v0)
9d002368:	24550004 	addiu	s5,v0,4
9d00236c:	26100001 	addiu	s0,s0,1
9d002370:	06c10003 	bgez	s6,9d002380 <_do_print_cdnopuxX+0x580>
9d002374:	80820001 	lb	v0,1(a0)
9d002378:	36f70008 	ori	s7,s7,0x8
9d00237c:	0016b023 	negu	s6,s6
9d002380:	afb500a0 	sw	s5,160(sp)
9d002384:	2403002e 	li	v1,46
9d002388:	1443ff09 	bne	v0,v1,9d001fb0 <_do_print_cdnopuxX+0x1b0>
9d00238c:	241effff 	li	s8,-1
9d002390:	82020001 	lb	v0,1(s0)
9d002394:	2403002a 	li	v1,42
9d002398:	104300ed 	beq	v0,v1,9d002750 <_do_print_cdnopuxX+0x950>
9d00239c:	2443ffd0 	addiu	v1,v0,-48
9d0023a0:	2c63000a 	sltiu	v1,v1,10
9d0023a4:	26100001 	addiu	s0,s0,1
9d0023a8:	1060ff01 	beqz	v1,9d001fb0 <_do_print_cdnopuxX+0x1b0>
9d0023ac:	0000f021 	move	s8,zero
9d0023b0:	001e1840 	sll	v1,s8,0x1
9d0023b4:	001e58c0 	sll	t3,s8,0x3
9d0023b8:	006b5821 	addu	t3,v1,t3
9d0023bc:	26100001 	addiu	s0,s0,1
9d0023c0:	01625821 	addu	t3,t3,v0
9d0023c4:	82020000 	lb	v0,0(s0)
9d0023c8:	2443ffd0 	addiu	v1,v0,-48
9d0023cc:	2c63000a 	sltiu	v1,v1,10
9d0023d0:	1460fff7 	bnez	v1,9d0023b0 <_do_print_cdnopuxX+0x5b0>
9d0023d4:	257effd0 	addiu	s8,t3,-48
9d0023d8:	24030068 	li	v1,104
9d0023dc:	1443fef8 	bne	v0,v1,9d001fc0 <_do_print_cdnopuxX+0x1c0>
9d0023e0:	2403006c 	li	v1,108
9d0023e4:	82030001 	lb	v1,1(s0)
9d0023e8:	506200e3 	beql	v1,v0,9d002778 <_do_print_cdnopuxX+0x978>
9d0023ec:	82020002 	lb	v0,2(s0)
9d0023f0:	36f70040 	ori	s7,s7,0x40
9d0023f4:	00601021 	move	v0,v1
9d0023f8:	26100001 	addiu	s0,s0,1
9d0023fc:	32e40002 	andi	a0,s7,0x2
9d002400:	32e3fffe 	andi	v1,s7,0xfffe
9d002404:	0064b80b 	movn	s7,v1,a0
9d002408:	2442ffbc 	addiu	v0,v0,-68
9d00240c:	32e50008 	andi	a1,s7,0x8
9d002410:	32e4fffb 	andi	a0,s7,0xfffb
9d002414:	2c430035 	sltiu	v1,v0,53
9d002418:	26120001 	addiu	s2,s0,1
9d00241c:	1460fef5 	bnez	v1,9d001ff4 <_do_print_cdnopuxX+0x1f4>
9d002420:	0085b80b 	movn	s7,a0,a1
9d002424:	0b40089b 	j	9d00226c <_do_print_cdnopuxX+0x46c>
9d002428:	00001021 	move	v0,zero
9d00242c:	82030001 	lb	v1,1(s0)
9d002430:	506200e1 	beql	v1,v0,9d0027b8 <_do_print_cdnopuxX+0x9b8>
9d002434:	82020002 	lb	v0,2(s0)
9d002438:	36f70010 	ori	s7,s7,0x10
9d00243c:	00601021 	move	v0,v1
9d002440:	0b4008ff 	j	9d0023fc <_do_print_cdnopuxX+0x5fc>
9d002444:	26100001 	addiu	s0,s0,1
9d002448:	12a000d7 	beqz	s5,9d0027a8 <_do_print_cdnopuxX+0x9a8>
9d00244c:	02a06821 	move	t5,s5
9d002450:	27a30057 	addiu	v1,sp,87
9d002454:	afa30068 	sw	v1,104(sp)
9d002458:	32e30020 	andi	v1,s7,0x20
9d00245c:	24050037 	li	a1,55
9d002460:	8fb30068 	lw	s3,104(sp)
9d002464:	24020057 	li	v0,87
9d002468:	0043280a 	movz	a1,v0,v1
9d00246c:	01b0001b 	divu	zero,t5,s0
9d002470:	020001f4 	teq	s0,zero,0x7
9d002474:	00001810 	mfhi	v1
9d002478:	2673ffff 	addiu	s3,s3,-1
9d00247c:	27deffff 	addiu	s8,s8,-1
9d002480:	01b0001b 	divu	zero,t5,s0
9d002484:	020001f4 	teq	s0,zero,0x7
9d002488:	00006812 	mflo	t5
9d00248c:	2864000a 	slti	a0,v1,10
9d002490:	24620030 	addiu	v0,v1,48
9d002494:	00651821 	addu	v1,v1,a1
9d002498:	0064100a 	movz	v0,v1,a0
9d00249c:	15a0fff3 	bnez	t5,9d00246c <_do_print_cdnopuxX+0x66c>
9d0024a0:	a2620001 	sb	v0,1(s3)
9d0024a4:	0b400875 	j	9d0021d4 <_do_print_cdnopuxX+0x3d4>
9d0024a8:	27c5ffff 	addiu	a1,s8,-1
9d0024ac:	2402002d 	li	v0,45
9d0024b0:	a2620000 	sb	v0,0(s3)
9d0024b4:	0b400894 	j	9d002250 <_do_print_cdnopuxX+0x450>
9d0024b8:	2673ffff 	addiu	s3,s3,-1
9d0024bc:	24040025 	li	a0,37
9d0024c0:	0f4010d4 	jal	9d004350 <fputc>
9d0024c4:	8fa50098 	lw	a1,152(sp)
9d0024c8:	26520002 	addiu	s2,s2,2
9d0024cc:	8fa40060 	lw	a0,96(sp)
9d0024d0:	24840001 	addiu	a0,a0,1
9d0024d4:	0b400796 	j	9d001e58 <_do_print_cdnopuxX+0x58>
9d0024d8:	afa40060 	sw	a0,96(sp)
9d0024dc:	82020001 	lb	v0,1(s0)
9d0024e0:	36f78000 	ori	s7,s7,0x8000
9d0024e4:	0b4008ff 	j	9d0023fc <_do_print_cdnopuxX+0x5fc>
9d0024e8:	26100001 	addiu	s0,s0,1
9d0024ec:	50400074 	beqzl	v0,9d0026c0 <_do_print_cdnopuxX+0x8c0>
9d0024f0:	8fa300a0 	lw	v1,160(sp)
9d0024f4:	8fa200a0 	lw	v0,160(sp)
9d0024f8:	8c550000 	lw	s5,0(v0)
9d0024fc:	24420004 	addiu	v0,v0,4
9d002500:	afa200a0 	sw	v0,160(sp)
9d002504:	0015a7c3 	sra	s4,s5,0x1f
9d002508:	02801021 	move	v0,s4
9d00250c:	0441ff0d 	bgez	v0,9d002144 <_do_print_cdnopuxX+0x344>
9d002510:	02a01821 	move	v1,s5
9d002514:	0b40095e 	j	9d002578 <_do_print_cdnopuxX+0x778>
9d002518:	00036823 	negu	t5,v1
9d00251c:	50400062 	beqzl	v0,9d0026a8 <_do_print_cdnopuxX+0x8a8>
9d002520:	8fa300a0 	lw	v1,160(sp)
9d002524:	8fa200a0 	lw	v0,160(sp)
9d002528:	8c550000 	lw	s5,0(v0)
9d00252c:	0000a021 	move	s4,zero
9d002530:	24420004 	addiu	v0,v0,4
9d002534:	afa200a0 	sw	v0,160(sp)
9d002538:	0b400852 	j	9d002148 <_do_print_cdnopuxX+0x348>
9d00253c:	afa0006c 	sw	zero,108(sp)
9d002540:	2402ffff 	li	v0,-1
9d002544:	8fbf0094 	lw	ra,148(sp)
9d002548:	8fbe0090 	lw	s8,144(sp)
9d00254c:	8fb7008c 	lw	s7,140(sp)
9d002550:	8fb60088 	lw	s6,136(sp)
9d002554:	8fb50084 	lw	s5,132(sp)
9d002558:	8fb40080 	lw	s4,128(sp)
9d00255c:	8fb3007c 	lw	s3,124(sp)
9d002560:	8fb20078 	lw	s2,120(sp)
9d002564:	8fb10074 	lw	s1,116(sp)
9d002568:	8fb00070 	lw	s0,112(sp)
9d00256c:	03e00008 	jr	ra
9d002570:	27bd0098 	addiu	sp,sp,152
9d002574:	00036823 	negu	t5,v1
9d002578:	000d182b 	sltu	v1,zero,t5
9d00257c:	00021023 	negu	v0,v0
9d002580:	01a0a821 	move	s5,t5
9d002584:	0043a023 	subu	s4,v0,v1
9d002588:	24040001 	li	a0,1
9d00258c:	0b400852 	j	9d002148 <_do_print_cdnopuxX+0x348>
9d002590:	afa4006c 	sw	a0,108(sp)
9d002594:	5440ff68 	bnezl	v0,9d002338 <_do_print_cdnopuxX+0x538>
9d002598:	2463ffff 	addiu	v1,v1,-1
9d00259c:	0b4008ce 	j	9d002338 <_do_print_cdnopuxX+0x538>
9d0025a0:	00000000 	nop
9d0025a4:	0b40083c 	j	9d0020f0 <_do_print_cdnopuxX+0x2f0>
9d0025a8:	24100008 	li	s0,8
9d0025ac:	7c171620 	seh	v0,s7
9d0025b0:	04400096 	bltz	v0,9d00280c <_do_print_cdnopuxX+0xa0c>
9d0025b4:	8fa400a0 	lw	a0,160(sp)
9d0025b8:	32e20010 	andi	v0,s7,0x10
9d0025bc:	14400087 	bnez	v0,9d0027dc <_do_print_cdnopuxX+0x9dc>
9d0025c0:	8fa200a0 	lw	v0,160(sp)
9d0025c4:	32e20040 	andi	v0,s7,0x40
9d0025c8:	1040009b 	beqz	v0,9d002838 <_do_print_cdnopuxX+0xa38>
9d0025cc:	32e80001 	andi	t0,s7,0x1
9d0025d0:	8fa200a0 	lw	v0,160(sp)
9d0025d4:	8c430000 	lw	v1,0(v0)
9d0025d8:	00001021 	move	v0,zero
9d0025dc:	8fa400a0 	lw	a0,160(sp)
9d0025e0:	24840004 	addiu	a0,a0,4
9d0025e4:	afa400a0 	sw	a0,160(sp)
9d0025e8:	8fa40060 	lw	a0,96(sp)
9d0025ec:	0b40089b 	j	9d00226c <_do_print_cdnopuxX+0x46c>
9d0025f0:	a4640000 	sh	a0,0(v1)
9d0025f4:	8fa400a0 	lw	a0,160(sp)
9d0025f8:	8c900000 	lw	s0,0(a0)
9d0025fc:	3c039d00 	lui	v1,0x9d00
9d002600:	2462481c 	addiu	v0,v1,18460
9d002604:	0050800a 	movz	s0,v0,s0
9d002608:	2402ffff 	li	v0,-1
9d00260c:	13c2007b 	beq	s8,v0,9d0027fc <_do_print_cdnopuxX+0x9fc>
9d002610:	24950004 	addiu	s5,a0,4
9d002614:	1bc00094 	blez	s8,9d002868 <_do_print_cdnopuxX+0xa68>
9d002618:	021e5821 	addu	t3,s0,s8
9d00261c:	82030000 	lb	v1,0(s0)
9d002620:	14600005 	bnez	v1,9d002638 <_do_print_cdnopuxX+0x838>
9d002624:	02001021 	move	v0,s0
9d002628:	0b400992 	j	9d002648 <_do_print_cdnopuxX+0x848>
9d00262c:	00001021 	move	v0,zero
9d002630:	50600005 	beqzl	v1,9d002648 <_do_print_cdnopuxX+0x848>
9d002634:	00501023 	subu	v0,v0,s0
9d002638:	24420001 	addiu	v0,v0,1
9d00263c:	544bfffc 	bnel	v0,t3,9d002630 <_do_print_cdnopuxX+0x830>
9d002640:	80430000 	lb	v1,0(v0)
9d002644:	00501023 	subu	v0,v0,s0
9d002648:	afb70010 	sw	s7,16(sp)
9d00264c:	8fa40098 	lw	a0,152(sp)
9d002650:	02002821 	move	a1,s0
9d002654:	00403021 	move	a2,v0
9d002658:	0f400f2e 	jal	9d003cb8 <.LFE8>
9d00265c:	02c03821 	move	a3,s6
9d002660:	0b40089b 	j	9d00226c <_do_print_cdnopuxX+0x46c>
9d002664:	afb500a0 	sw	s5,160(sp)
9d002668:	8fa300a0 	lw	v1,160(sp)
9d00266c:	8c620000 	lw	v0,0(v1)
9d002670:	24750004 	addiu	s5,v1,4
9d002674:	afb70010 	sw	s7,16(sp)
9d002678:	8fa40098 	lw	a0,152(sp)
9d00267c:	27a50018 	addiu	a1,sp,24
9d002680:	24060001 	li	a2,1
9d002684:	02c03821 	move	a3,s6
9d002688:	a3a20018 	sb	v0,24(sp)
9d00268c:	0f400f2e 	jal	9d003cb8 <.LFE8>
9d002690:	afb500a0 	sw	s5,160(sp)
9d002694:	0b40089c 	j	9d002270 <_do_print_cdnopuxX+0x470>
9d002698:	8fa30060 	lw	v1,96(sp)
9d00269c:	36f70010 	ori	s7,s7,0x10
9d0026a0:	0b40083c 	j	9d0020f0 <_do_print_cdnopuxX+0x2f0>
9d0026a4:	24100008 	li	s0,8
9d0026a8:	8c750000 	lw	s5,0(v1)
9d0026ac:	0000a021 	move	s4,zero
9d0026b0:	24630004 	addiu	v1,v1,4
9d0026b4:	afa300a0 	sw	v1,160(sp)
9d0026b8:	0b400852 	j	9d002148 <_do_print_cdnopuxX+0x348>
9d0026bc:	afa0006c 	sw	zero,108(sp)
9d0026c0:	8c750000 	lw	s5,0(v1)
9d0026c4:	24630004 	addiu	v1,v1,4
9d0026c8:	afa300a0 	sw	v1,160(sp)
9d0026cc:	0015a7c3 	sra	s4,s5,0x1f
9d0026d0:	02801021 	move	v0,s4
9d0026d4:	0441fe9b 	bgez	v0,9d002144 <_do_print_cdnopuxX+0x344>
9d0026d8:	02a01821 	move	v1,s5
9d0026dc:	0b40095e 	j	9d002578 <_do_print_cdnopuxX+0x778>
9d0026e0:	00036823 	negu	t5,v1
9d0026e4:	82630001 	lb	v1,1(s3)
9d0026e8:	24020030 	li	v0,48
9d0026ec:	1062fed0 	beq	v1,v0,9d002230 <_do_print_cdnopuxX+0x430>
9d0026f0:	8fa30064 	lw	v1,100(sp)
9d0026f4:	a2620000 	sb	v0,0(s3)
9d0026f8:	0b40088b 	j	9d00222c <_do_print_cdnopuxX+0x42c>
9d0026fc:	2673ffff 	addiu	s3,s3,-1
9d002700:	24820007 	addiu	v0,a0,7
9d002704:	7c021004 	ins	v0,zero,0x0,0x3
9d002708:	24430008 	addiu	v1,v0,8
9d00270c:	afa300a0 	sw	v1,160(sp)
9d002710:	8c550000 	lw	s5,0(v0)
9d002714:	8c540004 	lw	s4,4(v0)
9d002718:	0b400852 	j	9d002148 <_do_print_cdnopuxX+0x348>
9d00271c:	afa0006c 	sw	zero,108(sp)
9d002720:	8fa300a0 	lw	v1,160(sp)
9d002724:	24750007 	addiu	s5,v1,7
9d002728:	7c151004 	ins	s5,zero,0x0,0x3
9d00272c:	8ea30000 	lw	v1,0(s5)
9d002730:	8ea20004 	lw	v0,4(s5)
9d002734:	26b50008 	addiu	s5,s5,8
9d002738:	afb500a0 	sw	s5,160(sp)
9d00273c:	0060a821 	move	s5,v1
9d002740:	0441fe80 	bgez	v0,9d002144 <_do_print_cdnopuxX+0x344>
9d002744:	0040a021 	move	s4,v0
9d002748:	0b40095e 	j	9d002578 <_do_print_cdnopuxX+0x778>
9d00274c:	00036823 	negu	t5,v1
9d002750:	8fa300a0 	lw	v1,160(sp)
9d002754:	8c7e0000 	lw	s8,0(v1)
9d002758:	24750004 	addiu	s5,v1,4
9d00275c:	26030002 	addiu	v1,s0,2
9d002760:	82020002 	lb	v0,2(s0)
9d002764:	afb500a0 	sw	s5,160(sp)
9d002768:	07c1fe11 	bgez	s8,9d001fb0 <_do_print_cdnopuxX+0x1b0>
9d00276c:	00608021 	move	s0,v1
9d002770:	0b4007ec 	j	9d001fb0 <_do_print_cdnopuxX+0x1b0>
9d002774:	241effff 	li	s8,-1
9d002778:	36f70001 	ori	s7,s7,0x1
9d00277c:	26100001 	addiu	s0,s0,1
9d002780:	0b4008ff 	j	9d0023fc <_do_print_cdnopuxX+0x5fc>
9d002784:	26100001 	addiu	s0,s0,1
9d002788:	24020058 	li	v0,88
9d00278c:	24030078 	li	v1,120
9d002790:	0064100a 	movz	v0,v1,a0
9d002794:	a2620000 	sb	v0,0(s3)
9d002798:	24020030 	li	v0,48
9d00279c:	a262ffff 	sb	v0,-1(s3)
9d0027a0:	0b40088b 	j	9d00222c <_do_print_cdnopuxX+0x42c>
9d0027a4:	2673fffe 	addiu	s3,s3,-2
9d0027a8:	27a20057 	addiu	v0,sp,87
9d0027ac:	afa20068 	sw	v0,104(sp)
9d0027b0:	0b400875 	j	9d0021d4 <_do_print_cdnopuxX+0x3d4>
9d0027b4:	00409821 	move	s3,v0
9d0027b8:	36f78000 	ori	s7,s7,0x8000
9d0027bc:	26100001 	addiu	s0,s0,1
9d0027c0:	0b4008ff 	j	9d0023fc <_do_print_cdnopuxX+0x5fc>
9d0027c4:	26100001 	addiu	s0,s0,1
9d0027c8:	82620001 	lb	v0,1(s3)
9d0027cc:	38420030 	xori	v0,v0,0x30
9d0027d0:	0002102b 	sltu	v0,zero,v0
9d0027d4:	0b4008c8 	j	9d002320 <_do_print_cdnopuxX+0x520>
9d0027d8:	00621823 	subu	v1,v1,v0
9d0027dc:	8c430000 	lw	v1,0(v0)
9d0027e0:	00001021 	move	v0,zero
9d0027e4:	8fa400a0 	lw	a0,160(sp)
9d0027e8:	24840004 	addiu	a0,a0,4
9d0027ec:	afa400a0 	sw	a0,160(sp)
9d0027f0:	8fa40060 	lw	a0,96(sp)
9d0027f4:	0b40089b 	j	9d00226c <_do_print_cdnopuxX+0x46c>
9d0027f8:	ac640000 	sw	a0,0(v1)
9d0027fc:	0f4010ff 	jal	9d0043fc <strlen>
9d002800:	02002021 	move	a0,s0
9d002804:	0b400993 	j	9d00264c <_do_print_cdnopuxX+0x84c>
9d002808:	afb70010 	sw	s7,16(sp)
9d00280c:	8c820000 	lw	v0,0(a0)
9d002810:	8fa40060 	lw	a0,96(sp)
9d002814:	00041fc3 	sra	v1,a0,0x1f
9d002818:	8fa400a0 	lw	a0,160(sp)
9d00281c:	24840004 	addiu	a0,a0,4
9d002820:	afa400a0 	sw	a0,160(sp)
9d002824:	8fa40060 	lw	a0,96(sp)
9d002828:	ac440000 	sw	a0,0(v0)
9d00282c:	ac430004 	sw	v1,4(v0)
9d002830:	0b40089b 	j	9d00226c <_do_print_cdnopuxX+0x46c>
9d002834:	00001021 	move	v0,zero
9d002838:	8fa200a0 	lw	v0,160(sp)
9d00283c:	8c430000 	lw	v1,0(v0)
9d002840:	00001021 	move	v0,zero
9d002844:	8fa400a0 	lw	a0,160(sp)
9d002848:	24840004 	addiu	a0,a0,4
9d00284c:	afa400a0 	sw	a0,160(sp)
9d002850:	11000003 	beqz	t0,9d002860 <_do_print_cdnopuxX+0xa60>
9d002854:	8fa40060 	lw	a0,96(sp)
9d002858:	0b40089b 	j	9d00226c <_do_print_cdnopuxX+0x46c>
9d00285c:	a0640000 	sb	a0,0(v1)
9d002860:	0b40089b 	j	9d00226c <_do_print_cdnopuxX+0x46c>
9d002864:	ac640000 	sw	a0,0(v1)
9d002868:	0b400992 	j	9d002648 <_do_print_cdnopuxX+0x848>
9d00286c:	00001021 	move	v0,zero

Disassembly of section .text:

9d002870 <LCD_Setup-0xb4>:
#define PMABIT 10 // which PMA bit number to use

// wait for the peripheral master port (PMP) to be ready
// should be called before every read and write operation
static void waitPMP(void)
{
9d002870:	27bdfff8 	addiu	sp,sp,-8
9d002874:	afbe0004 	sw	s8,4(sp)
9d002878:	03a0f021 	move	s8,sp
  while(PMMODEbits.BUSY) { ; }
9d00287c:	00000000 	nop
9d002880:	3c02bf80 	lui	v0,0xbf80
9d002884:	8c427010 	lw	v0,28688(v0)
9d002888:	30428000 	andi	v0,v0,0x8000
9d00288c:	1440fffc 	bnez	v0,9d002880 <_do_print_cdnopuxX+0xa80>
9d002890:	00000000 	nop
}
9d002894:	03c0e821 	move	sp,s8
9d002898:	8fbe0004 	lw	s8,4(sp)
9d00289c:	27bd0008 	addiu	sp,sp,8
9d0028a0:	03e00008 	jr	ra
9d0028a4:	00000000 	nop

// wait for the LCD to finish its command.
// We check this by reading from the LCD
static void waitLCD() {
9d0028a8:	27bdffe0 	addiu	sp,sp,-32
9d0028ac:	afbf001c 	sw	ra,28(sp)
9d0028b0:	afbe0018 	sw	s8,24(sp)
9d0028b4:	03a0f021 	move	s8,sp
  volatile unsigned char val = 0x80;
9d0028b8:	2402ff80 	li	v0,-128
  
  // Read from the LCD until the Busy flag (BF, 7th bit) is 0
  while (val & 0x80) {
9d0028bc:	0b400a34 	j	9d0028d0 <_do_print_cdnopuxX+0xad0>
9d0028c0:	a3c20014 	sb	v0,20(s8)
    val = LCD_Read(0);
9d0028c4:	0f400bd5 	jal	9d002f54 <LCD_Read>
9d0028c8:	00002021 	move	a0,zero
9d0028cc:	a3c20014 	sb	v0,20(s8)
// We check this by reading from the LCD
static void waitLCD() {
  volatile unsigned char val = 0x80;
  
  // Read from the LCD until the Busy flag (BF, 7th bit) is 0
  while (val & 0x80) {
9d0028d0:	93c20014 	lbu	v0,20(s8)
9d0028d4:	304200ff 	andi	v0,v0,0xff
9d0028d8:	7c021420 	seb	v0,v0
9d0028dc:	0440fff9 	bltz	v0,9d0028c4 <_do_print_cdnopuxX+0xac4>
9d0028e0:	00000000 	nop
    val = LCD_Read(0);
  }
  int i = 0;
9d0028e4:	afc00010 	sw	zero,16(s8)
  for(i = 0; i < 50; ++i) { // slight delay
9d0028e8:	0b400a40 	j	9d002900 <_do_print_cdnopuxX+0xb00>
9d0028ec:	afc00010 	sw	zero,16(s8)
    _nop();
9d0028f0:	00000040 	ssnop
  // Read from the LCD until the Busy flag (BF, 7th bit) is 0
  while (val & 0x80) {
    val = LCD_Read(0);
  }
  int i = 0;
  for(i = 0; i < 50; ++i) { // slight delay
9d0028f4:	8fc20010 	lw	v0,16(s8)
9d0028f8:	24420001 	addiu	v0,v0,1
9d0028fc:	afc20010 	sw	v0,16(s8)
9d002900:	8fc20010 	lw	v0,16(s8)
9d002904:	28420032 	slti	v0,v0,50
9d002908:	1440fff9 	bnez	v0,9d0028f0 <_do_print_cdnopuxX+0xaf0>
9d00290c:	00000000 	nop
    _nop();
  }
}
9d002910:	03c0e821 	move	sp,s8
9d002914:	8fbf001c 	lw	ra,28(sp)
9d002918:	8fbe0018 	lw	s8,24(sp)
9d00291c:	03e00008 	jr	ra
9d002920:	27bd0020 	addiu	sp,sp,32

9d002924 <LCD_Setup>:
// pins RE0 - RE7 (PMD0 - PMD7) connect to LCD pins D0 - D7
// pin RD4 (PMENB) connects to LCD pin E
// pin RD5 (PMRD/PMWR) Connects to LCD pin R/W
// pin RB13 (PMA10) Connects to RS.
// interrupts will be disabled while this function executes
void LCD_Setup() {
9d002924:	27bdffe0 	addiu	sp,sp,-32
9d002928:	afbf001c 	sw	ra,28(sp)
9d00292c:	afbe0018 	sw	s8,24(sp)
9d002930:	03a0f021 	move	s8,sp
  int en = __builtin_disable_interrupts();  // disable interrupts, remember initial state
9d002934:	41626000 	di	v0
9d002938:	000000c0 	ehb
9d00293c:	00000000 	nop
9d002940:	afc20010 	sw	v0,16(s8)
  
  IEC1bits.PMPIE = 0;    // disable PMP interrupts
9d002944:	3c03bf88 	lui	v1,0xbf88
9d002948:	8c621070 	lw	v0,4208(v1)
9d00294c:	7c021084 	ins	v0,zero,0x2,0x1
9d002950:	ac621070 	sw	v0,4208(v1)
  PMCON = 0;             // clear PMCON, like it is on reset
9d002954:	3c02bf80 	lui	v0,0xbf80
9d002958:	ac407000 	sw	zero,28672(v0)
  PMCONbits.PTWREN = 1;  // PMENB strobe enabled
9d00295c:	3c03bf80 	lui	v1,0xbf80
9d002960:	94627000 	lhu	v0,28672(v1)
9d002964:	24040001 	li	a0,1
9d002968:	7c824a44 	ins	v0,a0,0x9,0x1
9d00296c:	a4627000 	sh	v0,28672(v1)
  PMCONbits.PTRDEN = 1;  // PMRD/PMWR enabled
9d002970:	3c03bf80 	lui	v1,0xbf80
9d002974:	94627000 	lhu	v0,28672(v1)
9d002978:	24040001 	li	a0,1
9d00297c:	7c824204 	ins	v0,a0,0x8,0x1
9d002980:	a4627000 	sh	v0,28672(v1)
  PMCONbits.WRSP = 1;    // Read/write strobe is active high
9d002984:	3c03bf80 	lui	v1,0xbf80
9d002988:	94627000 	lhu	v0,28672(v1)
9d00298c:	24040001 	li	a0,1
9d002990:	7c820844 	ins	v0,a0,0x1,0x1
9d002994:	a4627000 	sh	v0,28672(v1)
  PMCONbits.RDSP = 1;    // Read/write strobe is active high
9d002998:	3c03bf80 	lui	v1,0xbf80
9d00299c:	94627000 	lhu	v0,28672(v1)
9d0029a0:	24040001 	li	a0,1
9d0029a4:	7c820004 	ins	v0,a0,0x0,0x1
9d0029a8:	a4627000 	sh	v0,28672(v1)

  PMMODE = 0;            // clear PMMODE like it is on reset
9d0029ac:	3c02bf80 	lui	v0,0xbf80
9d0029b0:	ac407010 	sw	zero,28688(v0)
  PMMODEbits.MODE = 0x3; // set master mode 1, which uses a single strobe
9d0029b4:	3c03bf80 	lui	v1,0xbf80
9d0029b8:	94627010 	lhu	v0,28688(v1)
9d0029bc:	24040003 	li	a0,3
9d0029c0:	7c824a04 	ins	v0,a0,0x8,0x2
9d0029c4:	a4627010 	sh	v0,28688(v1)
  // The cycle is started when reading from or writing to the PMDIN SFR.
  // Note that the wait states for writes start with minimum of 1 (except WAITE)
  // We add some extra wait states to make sure we meet the time and
  // account for variations in timing amongst different HD44780 compatible parts.
  // The timing we use here is for the KS066U which is faster than the HD44780.
  PMMODEbits.WAITB = 0x3;  // Tas in the LCD datasheet is 60 ns 
9d0029c8:	3c03bf80 	lui	v1,0xbf80
9d0029cc:	94627010 	lhu	v0,28688(v1)
9d0029d0:	24040003 	li	a0,3
9d0029d4:	7c823984 	ins	v0,a0,0x6,0x2
9d0029d8:	a4627010 	sh	v0,28688(v1)
  PMMODEbits.WAITM = 0xF;  // PWeh in the data sheet is 230 ns (we don't quite meet this)
9d0029dc:	3c03bf80 	lui	v1,0xbf80
9d0029e0:	94627010 	lhu	v0,28688(v1)
9d0029e4:	2404000f 	li	a0,15
9d0029e8:	7c822884 	ins	v0,a0,0x2,0x4
9d0029ec:	a4627010 	sh	v0,28688(v1)
                           // If not working for your LCD you may need to reduce PBCLK
  PMMODEbits.WAITE = 0x1;  // after E is low wait Tah (10ns)
9d0029f0:	3c03bf80 	lui	v1,0xbf80
9d0029f4:	94627010 	lhu	v0,28688(v1)
9d0029f8:	24040001 	li	a0,1
9d0029fc:	7c820804 	ins	v0,a0,0x0,0x2
9d002a00:	a4627010 	sh	v0,28688(v1)

  PMAEN |= 1 << PMABIT;   // PMA is an address line
9d002a04:	3c02bf80 	lui	v0,0xbf80
9d002a08:	8c427050 	lw	v0,28752(v0)
9d002a0c:	34430400 	ori	v1,v0,0x400
9d002a10:	3c02bf80 	lui	v0,0xbf80
9d002a14:	ac437050 	sw	v1,28752(v0)
  
  PMCONbits.ON = 1;        // enable the PMP peripheral
9d002a18:	3c03bf80 	lui	v1,0xbf80
9d002a1c:	94627000 	lhu	v0,28672(v1)
9d002a20:	24040001 	li	a0,1
9d002a24:	7c827bc4 	ins	v0,a0,0xf,0x1
9d002a28:	a4627000 	sh	v0,28672(v1)
  // perform the initialization sequence
  LCD_Function(1,0);       // 2 line mode, small font
9d002a2c:	24040001 	li	a0,1
9d002a30:	00002821 	move	a1,zero
9d002a34:	0f400b16 	jal	9d002c58 <LCD_Function>
9d002a38:	00000000 	nop
  LCD_Display(1, 0, 0);    // Display control: display on, cursor off, blinking cursor off
9d002a3c:	24040001 	li	a0,1
9d002a40:	00002821 	move	a1,zero
9d002a44:	00003021 	move	a2,zero
9d002a48:	0f400adb 	jal	9d002b6c <LCD_Display>
9d002a4c:	00000000 	nop
  LCD_Clear();             // clear the LCD 
9d002a50:	0f400aa5 	jal	9d002a94 <LCD_Clear>
9d002a54:	00000000 	nop
  LCD_Entry(1, 0);         // Cursor moves left to right. do not shift the display
9d002a58:	24040001 	li	a0,1
9d002a5c:	00002821 	move	a1,zero
9d002a60:	0f400ac1 	jal	9d002b04 <LCD_Entry>
9d002a64:	00000000 	nop
  
  if(en & 0x1)             // if interrupts were enabled before, re-enable them
9d002a68:	8fc20010 	lw	v0,16(s8)
9d002a6c:	30420001 	andi	v0,v0,0x1
9d002a70:	10400002 	beqz	v0,9d002a7c <LCD_Setup+0x158>
9d002a74:	00000000 	nop
  {
    __builtin_enable_interrupts();
9d002a78:	41626020 	ei	v0
  }
}
9d002a7c:	03c0e821 	move	sp,s8
9d002a80:	8fbf001c 	lw	ra,28(sp)
9d002a84:	8fbe0018 	lw	s8,24(sp)
9d002a88:	27bd0020 	addiu	sp,sp,32
9d002a8c:	03e00008 	jr	ra
9d002a90:	00000000 	nop

9d002a94 <LCD_Clear>:

// Clears the display and returns to the home position (0,0)
void LCD_Clear(void) {
9d002a94:	27bdffe8 	addiu	sp,sp,-24
9d002a98:	afbf0014 	sw	ra,20(sp)
9d002a9c:	afbe0010 	sw	s8,16(sp)
9d002aa0:	03a0f021 	move	s8,sp
  LCD_Write(0,0x01); //clear the whole screen
9d002aa4:	00002021 	move	a0,zero
9d002aa8:	24050001 	li	a1,1
9d002aac:	0f400bb6 	jal	9d002ed8 <LCD_Write>
9d002ab0:	00000000 	nop
}
9d002ab4:	03c0e821 	move	sp,s8
9d002ab8:	8fbf0014 	lw	ra,20(sp)
9d002abc:	8fbe0010 	lw	s8,16(sp)
9d002ac0:	27bd0018 	addiu	sp,sp,24
9d002ac4:	03e00008 	jr	ra
9d002ac8:	00000000 	nop

9d002acc <LCD_Home>:

// Return the cursor and display to the home position (0,0)
void LCD_Home(void) {
9d002acc:	27bdffe8 	addiu	sp,sp,-24
9d002ad0:	afbf0014 	sw	ra,20(sp)
9d002ad4:	afbe0010 	sw	s8,16(sp)
9d002ad8:	03a0f021 	move	s8,sp
  LCD_Write(0,0x02);
9d002adc:	00002021 	move	a0,zero
9d002ae0:	24050002 	li	a1,2
9d002ae4:	0f400bb6 	jal	9d002ed8 <LCD_Write>
9d002ae8:	00000000 	nop
}
9d002aec:	03c0e821 	move	sp,s8
9d002af0:	8fbf0014 	lw	ra,20(sp)
9d002af4:	8fbe0010 	lw	s8,16(sp)
9d002af8:	27bd0018 	addiu	sp,sp,24
9d002afc:	03e00008 	jr	ra
9d002b00:	00000000 	nop

9d002b04 <LCD_Entry>:

// Issue the LCD entry mode set command
// This tells the LCD what to do after writing a character
// id : 1 increment cursor, 0 decrement cursor
// s : 1 shift display right, 0 don't shift display
void LCD_Entry(int id, int s) {
9d002b04:	27bdffe8 	addiu	sp,sp,-24
9d002b08:	afbf0014 	sw	ra,20(sp)
9d002b0c:	afbe0010 	sw	s8,16(sp)
9d002b10:	03a0f021 	move	s8,sp
9d002b14:	afc40018 	sw	a0,24(s8)
9d002b18:	afc5001c 	sw	a1,28(s8)
  LCD_Write(0, 0x04 | (id << 1) | s);
9d002b1c:	8fc20018 	lw	v0,24(s8)
9d002b20:	00021040 	sll	v0,v0,0x1
9d002b24:	7c021420 	seb	v0,v0
9d002b28:	34420004 	ori	v0,v0,0x4
9d002b2c:	7c021c20 	seb	v1,v0
9d002b30:	8fc2001c 	lw	v0,28(s8)
9d002b34:	7c021420 	seb	v0,v0
9d002b38:	00621025 	or	v0,v1,v0
9d002b3c:	7c021420 	seb	v0,v0
9d002b40:	304200ff 	andi	v0,v0,0xff
9d002b44:	00002021 	move	a0,zero
9d002b48:	00402821 	move	a1,v0
9d002b4c:	0f400bb6 	jal	9d002ed8 <LCD_Write>
9d002b50:	00000000 	nop
}
9d002b54:	03c0e821 	move	sp,s8
9d002b58:	8fbf0014 	lw	ra,20(sp)
9d002b5c:	8fbe0010 	lw	s8,16(sp)
9d002b60:	27bd0018 	addiu	sp,sp,24
9d002b64:	03e00008 	jr	ra
9d002b68:	00000000 	nop

9d002b6c <LCD_Display>:
// Issue the LCD Display command
// Changes display settings
// d : 1 display on, 0 display off
// c : 1 cursor on, 0 cursor off
// b : 1 cursor blinks, 0 cursor doesn't blink
void LCD_Display(int d, int c, int b) {
9d002b6c:	27bdffe8 	addiu	sp,sp,-24
9d002b70:	afbf0014 	sw	ra,20(sp)
9d002b74:	afbe0010 	sw	s8,16(sp)
9d002b78:	03a0f021 	move	s8,sp
9d002b7c:	afc40018 	sw	a0,24(s8)
9d002b80:	afc5001c 	sw	a1,28(s8)
9d002b84:	afc60020 	sw	a2,32(s8)
  LCD_Write(0, 0x08 | (d << 2) | (c << 1) | b);
9d002b88:	8fc20018 	lw	v0,24(s8)
9d002b8c:	00021080 	sll	v0,v0,0x2
9d002b90:	7c021420 	seb	v0,v0
9d002b94:	34420008 	ori	v0,v0,0x8
9d002b98:	7c021c20 	seb	v1,v0
9d002b9c:	8fc2001c 	lw	v0,28(s8)
9d002ba0:	00021040 	sll	v0,v0,0x1
9d002ba4:	7c021420 	seb	v0,v0
9d002ba8:	00621025 	or	v0,v1,v0
9d002bac:	7c021c20 	seb	v1,v0
9d002bb0:	8fc20020 	lw	v0,32(s8)
9d002bb4:	7c021420 	seb	v0,v0
9d002bb8:	00621025 	or	v0,v1,v0
9d002bbc:	7c021420 	seb	v0,v0
9d002bc0:	304200ff 	andi	v0,v0,0xff
9d002bc4:	00002021 	move	a0,zero
9d002bc8:	00402821 	move	a1,v0
9d002bcc:	0f400bb6 	jal	9d002ed8 <LCD_Write>
9d002bd0:	00000000 	nop
}
9d002bd4:	03c0e821 	move	sp,s8
9d002bd8:	8fbf0014 	lw	ra,20(sp)
9d002bdc:	8fbe0010 	lw	s8,16(sp)
9d002be0:	27bd0018 	addiu	sp,sp,24
9d002be4:	03e00008 	jr	ra
9d002be8:	00000000 	nop

9d002bec <LCD_Shift>:

// Issue the LCD display shift command
// Move the cursor or the display right or left
// sc : 0 shift cursor, 1 shift display
// rl : 0 to the left, 1 to the right
void LCD_Shift(int sc, int rl) {
9d002bec:	27bdffe8 	addiu	sp,sp,-24
9d002bf0:	afbf0014 	sw	ra,20(sp)
9d002bf4:	afbe0010 	sw	s8,16(sp)
9d002bf8:	03a0f021 	move	s8,sp
9d002bfc:	afc40018 	sw	a0,24(s8)
9d002c00:	afc5001c 	sw	a1,28(s8)
  LCD_Write(0,0x1 | (sc << 3) | (rl << 2));
9d002c04:	8fc20018 	lw	v0,24(s8)
9d002c08:	000210c0 	sll	v0,v0,0x3
9d002c0c:	7c021420 	seb	v0,v0
9d002c10:	34420001 	ori	v0,v0,0x1
9d002c14:	7c021c20 	seb	v1,v0
9d002c18:	8fc2001c 	lw	v0,28(s8)
9d002c1c:	00021080 	sll	v0,v0,0x2
9d002c20:	7c021420 	seb	v0,v0
9d002c24:	00621025 	or	v0,v1,v0
9d002c28:	7c021420 	seb	v0,v0
9d002c2c:	304200ff 	andi	v0,v0,0xff
9d002c30:	00002021 	move	a0,zero
9d002c34:	00402821 	move	a1,v0
9d002c38:	0f400bb6 	jal	9d002ed8 <LCD_Write>
9d002c3c:	00000000 	nop
}
9d002c40:	03c0e821 	move	sp,s8
9d002c44:	8fbf0014 	lw	ra,20(sp)
9d002c48:	8fbe0010 	lw	s8,16(sp)
9d002c4c:	27bd0018 	addiu	sp,sp,24
9d002c50:	03e00008 	jr	ra
9d002c54:	00000000 	nop

9d002c58 <LCD_Function>:
// Issue the LCD Functions set command
// This controls some LCD settings
// You may want to clear the screen after calling this
// n : 0 one line, 1 two lines
// f : 0 small font, 1 large font (only if n == 0)
void LCD_Function(int n, int f) {
9d002c58:	27bdffe8 	addiu	sp,sp,-24
9d002c5c:	afbf0014 	sw	ra,20(sp)
9d002c60:	afbe0010 	sw	s8,16(sp)
9d002c64:	03a0f021 	move	s8,sp
9d002c68:	afc40018 	sw	a0,24(s8)
9d002c6c:	afc5001c 	sw	a1,28(s8)
  LCD_Write(0, 0x30 | (n << 3) | (f << 2));
9d002c70:	8fc20018 	lw	v0,24(s8)
9d002c74:	000210c0 	sll	v0,v0,0x3
9d002c78:	7c021420 	seb	v0,v0
9d002c7c:	34420030 	ori	v0,v0,0x30
9d002c80:	7c021c20 	seb	v1,v0
9d002c84:	8fc2001c 	lw	v0,28(s8)
9d002c88:	00021080 	sll	v0,v0,0x2
9d002c8c:	7c021420 	seb	v0,v0
9d002c90:	00621025 	or	v0,v1,v0
9d002c94:	7c021420 	seb	v0,v0
9d002c98:	304200ff 	andi	v0,v0,0xff
9d002c9c:	00002021 	move	a0,zero
9d002ca0:	00402821 	move	a1,v0
9d002ca4:	0f400bb6 	jal	9d002ed8 <LCD_Write>
9d002ca8:	00000000 	nop
}
9d002cac:	03c0e821 	move	sp,s8
9d002cb0:	8fbf0014 	lw	ra,20(sp)
9d002cb4:	8fbe0010 	lw	s8,16(sp)
9d002cb8:	27bd0018 	addiu	sp,sp,24
9d002cbc:	03e00008 	jr	ra
9d002cc0:	00000000 	nop

9d002cc4 <LCD_Move>:

// Move the cursor to the desired line and column
// Does this by issuing a DDRAM Move instruction
// line : line 0 or line 1
// col  : the desired column
void LCD_Move(int line, int col) {
9d002cc4:	27bdffe8 	addiu	sp,sp,-24
9d002cc8:	afbf0014 	sw	ra,20(sp)
9d002ccc:	afbe0010 	sw	s8,16(sp)
9d002cd0:	03a0f021 	move	s8,sp
9d002cd4:	afc40018 	sw	a0,24(s8)
9d002cd8:	afc5001c 	sw	a1,28(s8)
  LCD_Write(0, 0x80 | (line << 6) | col);
9d002cdc:	8fc20018 	lw	v0,24(s8)
9d002ce0:	00021180 	sll	v0,v0,0x6
9d002ce4:	7c021c20 	seb	v1,v0
9d002ce8:	2402ff80 	li	v0,-128
9d002cec:	00621025 	or	v0,v1,v0
9d002cf0:	7c021c20 	seb	v1,v0
9d002cf4:	8fc2001c 	lw	v0,28(s8)
9d002cf8:	7c021420 	seb	v0,v0
9d002cfc:	00621025 	or	v0,v1,v0
9d002d00:	7c021420 	seb	v0,v0
9d002d04:	304200ff 	andi	v0,v0,0xff
9d002d08:	00002021 	move	a0,zero
9d002d0c:	00402821 	move	a1,v0
9d002d10:	0f400bb6 	jal	9d002ed8 <LCD_Write>
9d002d14:	00000000 	nop
}
9d002d18:	03c0e821 	move	sp,s8
9d002d1c:	8fbf0014 	lw	ra,20(sp)
9d002d20:	8fbe0010 	lw	s8,16(sp)
9d002d24:	27bd0018 	addiu	sp,sp,24
9d002d28:	03e00008 	jr	ra
9d002d2c:	00000000 	nop

9d002d30 <LCD_CMove>:

// Sets the CGRAM address, used for creating custom
// characters
// addr address in the CGRAM to make current
void LCD_CMove(unsigned char addr) {
9d002d30:	27bdffe8 	addiu	sp,sp,-24
9d002d34:	afbf0014 	sw	ra,20(sp)
9d002d38:	afbe0010 	sw	s8,16(sp)
9d002d3c:	03a0f021 	move	s8,sp
9d002d40:	00801021 	move	v0,a0
9d002d44:	a3c20018 	sb	v0,24(s8)
  LCD_Write(0, 0x40 | addr);
9d002d48:	93c20018 	lbu	v0,24(s8)
9d002d4c:	34420040 	ori	v0,v0,0x40
9d002d50:	304200ff 	andi	v0,v0,0xff
9d002d54:	00002021 	move	a0,zero
9d002d58:	00402821 	move	a1,v0
9d002d5c:	0f400bb6 	jal	9d002ed8 <LCD_Write>
9d002d60:	00000000 	nop
}
9d002d64:	03c0e821 	move	sp,s8
9d002d68:	8fbf0014 	lw	ra,20(sp)
9d002d6c:	8fbe0010 	lw	s8,16(sp)
9d002d70:	27bd0018 	addiu	sp,sp,24
9d002d74:	03e00008 	jr	ra
9d002d78:	00000000 	nop

9d002d7c <LCD_WriteChar>:

// Writes the character to the LCD at the current position
void LCD_WriteChar(char c) {         
9d002d7c:	27bdffe8 	addiu	sp,sp,-24
9d002d80:	afbf0014 	sw	ra,20(sp)
9d002d84:	afbe0010 	sw	s8,16(sp)
9d002d88:	03a0f021 	move	s8,sp
9d002d8c:	00801021 	move	v0,a0
9d002d90:	a3c20018 	sb	v0,24(s8)
  LCD_Write(1, c); 
9d002d94:	93c20018 	lbu	v0,24(s8)
9d002d98:	24040001 	li	a0,1
9d002d9c:	00402821 	move	a1,v0
9d002da0:	0f400bb6 	jal	9d002ed8 <LCD_Write>
9d002da4:	00000000 	nop
}
9d002da8:	03c0e821 	move	sp,s8
9d002dac:	8fbf0014 	lw	ra,20(sp)
9d002db0:	8fbe0010 	lw	s8,16(sp)
9d002db4:	27bd0018 	addiu	sp,sp,24
9d002db8:	03e00008 	jr	ra
9d002dbc:	00000000 	nop

9d002dc0 <LCD_WriteString>:

// Write a string to the LCD starting at the current cursor
void LCD_WriteString(const char *str) {
9d002dc0:	27bdffe8 	addiu	sp,sp,-24
9d002dc4:	afbf0014 	sw	ra,20(sp)
9d002dc8:	afbe0010 	sw	s8,16(sp)
9d002dcc:	03a0f021 	move	s8,sp
9d002dd0:	afc40018 	sw	a0,24(s8)
  while(*str) {
9d002dd4:	0b400b7f 	j	9d002dfc <LCD_WriteString+0x3c>
9d002dd8:	00000000 	nop
    LCD_WriteChar(*str); // increment string pointer after char sent
9d002ddc:	8fc20018 	lw	v0,24(s8)
9d002de0:	80420000 	lb	v0,0(v0)
9d002de4:	00402021 	move	a0,v0
9d002de8:	0f400b5f 	jal	9d002d7c <LCD_WriteChar>
9d002dec:	00000000 	nop
    ++str;
9d002df0:	8fc20018 	lw	v0,24(s8)
9d002df4:	24420001 	addiu	v0,v0,1
9d002df8:	afc20018 	sw	v0,24(s8)
  LCD_Write(1, c); 
}

// Write a string to the LCD starting at the current cursor
void LCD_WriteString(const char *str) {
  while(*str) {
9d002dfc:	8fc20018 	lw	v0,24(s8)
9d002e00:	80420000 	lb	v0,0(v0)
9d002e04:	1440fff5 	bnez	v0,9d002ddc <LCD_WriteString+0x1c>
9d002e08:	00000000 	nop
    LCD_WriteChar(*str); // increment string pointer after char sent
    ++str;
  }
}
9d002e0c:	03c0e821 	move	sp,s8
9d002e10:	8fbf0014 	lw	ra,20(sp)
9d002e14:	8fbe0010 	lw	s8,16(sp)
9d002e18:	27bd0018 	addiu	sp,sp,24
9d002e1c:	03e00008 	jr	ra
9d002e20:	00000000 	nop

9d002e24 <LCD_CustomChar>:
// Make val a custom character.  This only implements 
// The small font version
// val : between 0 and 7
// data : 7 character array.  The first 5 bits of each character
//        determine whether that pixel is on or off
void LCD_CustomChar(unsigned char val, const char * data) {
9d002e24:	27bdffe0 	addiu	sp,sp,-32
9d002e28:	afbf001c 	sw	ra,28(sp)
9d002e2c:	afbe0018 	sw	s8,24(sp)
9d002e30:	03a0f021 	move	s8,sp
9d002e34:	00801021 	move	v0,a0
9d002e38:	afc50024 	sw	a1,36(s8)
9d002e3c:	a3c20020 	sb	v0,32(s8)
  int i = 0;
9d002e40:	afc00010 	sw	zero,16(s8)
  for(i = 0; i < 7; ++i) {
9d002e44:	afc00010 	sw	zero,16(s8)
9d002e48:	0b400bac 	j	9d002eb0 <LCD_CustomChar+0x8c>
9d002e4c:	00000000 	nop
    LCD_CMove(((val & 7) << 2) | i);
9d002e50:	93c20020 	lbu	v0,32(s8)
9d002e54:	30420007 	andi	v0,v0,0x7
9d002e58:	00021080 	sll	v0,v0,0x2
9d002e5c:	7c021c20 	seb	v1,v0
9d002e60:	8fc20010 	lw	v0,16(s8)
9d002e64:	7c021420 	seb	v0,v0
9d002e68:	00621025 	or	v0,v1,v0
9d002e6c:	7c021420 	seb	v0,v0
9d002e70:	304200ff 	andi	v0,v0,0xff
9d002e74:	00402021 	move	a0,v0
9d002e78:	0f400b4c 	jal	9d002d30 <LCD_CMove>
9d002e7c:	00000000 	nop
    LCD_Write(1, data[i]);
9d002e80:	8fc20010 	lw	v0,16(s8)
9d002e84:	8fc30024 	lw	v1,36(s8)
9d002e88:	00621021 	addu	v0,v1,v0
9d002e8c:	80420000 	lb	v0,0(v0)
9d002e90:	304200ff 	andi	v0,v0,0xff
9d002e94:	24040001 	li	a0,1
9d002e98:	00402821 	move	a1,v0
9d002e9c:	0f400bb6 	jal	9d002ed8 <LCD_Write>
9d002ea0:	00000000 	nop
// val : between 0 and 7
// data : 7 character array.  The first 5 bits of each character
//        determine whether that pixel is on or off
void LCD_CustomChar(unsigned char val, const char * data) {
  int i = 0;
  for(i = 0; i < 7; ++i) {
9d002ea4:	8fc20010 	lw	v0,16(s8)
9d002ea8:	24420001 	addiu	v0,v0,1
9d002eac:	afc20010 	sw	v0,16(s8)
9d002eb0:	8fc20010 	lw	v0,16(s8)
9d002eb4:	28420007 	slti	v0,v0,7
9d002eb8:	1440ffe5 	bnez	v0,9d002e50 <LCD_CustomChar+0x2c>
9d002ebc:	00000000 	nop
    LCD_CMove(((val & 7) << 2) | i);
    LCD_Write(1, data[i]);
  }
}
9d002ec0:	03c0e821 	move	sp,s8
9d002ec4:	8fbf001c 	lw	ra,28(sp)
9d002ec8:	8fbe0018 	lw	s8,24(sp)
9d002ecc:	27bd0020 	addiu	sp,sp,32
9d002ed0:	03e00008 	jr	ra
9d002ed4:	00000000 	nop

9d002ed8 <LCD_Write>:

// Write data to the LCD and wait for it to finish by checking the busy flag. 
// rs : the value of the RS signal, 0 for an instruction 1 for data
// data : the byte to send
void LCD_Write(int rs, unsigned char data) {
9d002ed8:	27bdffe8 	addiu	sp,sp,-24
9d002edc:	afbf0014 	sw	ra,20(sp)
9d002ee0:	afbe0010 	sw	s8,16(sp)
9d002ee4:	03a0f021 	move	s8,sp
9d002ee8:	afc40018 	sw	a0,24(s8)
9d002eec:	00a01021 	move	v0,a1
9d002ef0:	a3c2001c 	sb	v0,28(s8)
  waitLCD();           // wait for the LCD to be ready
9d002ef4:	0f400a2a 	jal	9d0028a8 <_do_print_cdnopuxX+0xaa8>
9d002ef8:	00000000 	nop
  if(rs) { // 1 for data
9d002efc:	8fc20018 	lw	v0,24(s8)
9d002f00:	10400006 	beqz	v0,9d002f1c <LCD_Write+0x44>
9d002f04:	00000000 	nop
    PMADDRSET = 1 << PMABIT;
9d002f08:	3c02bf80 	lui	v0,0xbf80
9d002f0c:	24030400 	li	v1,1024
9d002f10:	ac437028 	sw	v1,28712(v0)
9d002f14:	0b400bca 	j	9d002f28 <LCD_Write+0x50>
9d002f18:	00000000 	nop
  } else { // 0 for command
    PMADDRCLR = 1 << PMABIT; 
9d002f1c:	3c02bf80 	lui	v0,0xbf80
9d002f20:	24030400 	li	v1,1024
9d002f24:	ac437024 	sw	v1,28708(v0)
  }
  waitPMP();           // Wait for the PMP to be ready
9d002f28:	0f400a1c 	jal	9d002870 <_do_print_cdnopuxX+0xa70>
9d002f2c:	00000000 	nop
  PMDIN = data;        // send the data
9d002f30:	93c3001c 	lbu	v1,28(s8)
9d002f34:	3c02bf80 	lui	v0,0xbf80
9d002f38:	ac437040 	sw	v1,28736(v0)
}
9d002f3c:	03c0e821 	move	sp,s8
9d002f40:	8fbf0014 	lw	ra,20(sp)
9d002f44:	8fbe0010 	lw	s8,16(sp)
9d002f48:	27bd0018 	addiu	sp,sp,24
9d002f4c:	03e00008 	jr	ra
9d002f50:	00000000 	nop

9d002f54 <LCD_Read>:

// read data from the LCD.  
// rs : the value of the RS signal 0 for instructions status, 1 for data
unsigned char LCD_Read(int rs) {
9d002f54:	27bdffe0 	addiu	sp,sp,-32
9d002f58:	afbf001c 	sw	ra,28(sp)
9d002f5c:	afbe0018 	sw	s8,24(sp)
9d002f60:	03a0f021 	move	s8,sp
9d002f64:	afc40020 	sw	a0,32(s8)
  volatile unsigned char val = 0; // volatile so 1st read doesn't get optimized away
9d002f68:	a3c00010 	sb	zero,16(s8)
  if(rs) { // 1 to read data
9d002f6c:	8fc20020 	lw	v0,32(s8)
9d002f70:	10400006 	beqz	v0,9d002f8c <LCD_Read+0x38>
9d002f74:	00000000 	nop
    PMADDRSET = 1 << PMABIT;
9d002f78:	3c02bf80 	lui	v0,0xbf80
9d002f7c:	24030400 	li	v1,1024
9d002f80:	ac437028 	sw	v1,28712(v0)
9d002f84:	0b400be6 	j	9d002f98 <LCD_Read+0x44>
9d002f88:	00000000 	nop
  } else { // 0 to read command status
    PMADDRCLR = 1 << PMABIT;
9d002f8c:	3c02bf80 	lui	v0,0xbf80
9d002f90:	24030400 	li	v1,1024
9d002f94:	ac437024 	sw	v1,28708(v0)
  }
  // from the PIC32 reference manual, you must read twice to actually get the data
  waitPMP();                  // wait for the PMP to be ready
9d002f98:	0f400a1c 	jal	9d002870 <_do_print_cdnopuxX+0xa70>
9d002f9c:	00000000 	nop
  val = PMDIN;
9d002fa0:	3c02bf80 	lui	v0,0xbf80
9d002fa4:	8c427040 	lw	v0,28736(v0)
9d002fa8:	304200ff 	andi	v0,v0,0xff
9d002fac:	a3c20010 	sb	v0,16(s8)
  waitPMP();
9d002fb0:	0f400a1c 	jal	9d002870 <_do_print_cdnopuxX+0xa70>
9d002fb4:	00000000 	nop
  val = PMDIN;
9d002fb8:	3c02bf80 	lui	v0,0xbf80
9d002fbc:	8c427040 	lw	v0,28736(v0)
9d002fc0:	304200ff 	andi	v0,v0,0xff
9d002fc4:	a3c20010 	sb	v0,16(s8)
  return val;
9d002fc8:	93c20010 	lbu	v0,16(s8)
9d002fcc:	304200ff 	andi	v0,v0,0xff
}
9d002fd0:	03c0e821 	move	sp,s8
9d002fd4:	8fbf001c 	lw	ra,28(sp)
9d002fd8:	8fbe0018 	lw	s8,24(sp)
9d002fdc:	27bd0020 	addiu	sp,sp,32
9d002fe0:	03e00008 	jr	ra
9d002fe4:	00000000 	nop

9d002fe8 <__umoddi3>:
9d002fe8:	00c04021 	move	t0,a2
9d002fec:	00804821 	move	t1,a0
9d002ff0:	14e0003b 	bnez	a3,9d0030e0 <__umoddi3+0xf8>
9d002ff4:	00a01821 	move	v1,a1
9d002ff8:	00a6102b 	sltu	v0,a1,a2
9d002ffc:	10400048 	beqz	v0,9d003120 <__umoddi3+0x138>
9d003000:	70c21020 	clz	v0,a2
9d003004:	50400008 	beqzl	v0,9d003028 <__umoddi3+0x40>
9d003008:	00083402 	srl	a2,t0,0x10
9d00300c:	00021823 	negu	v1,v0
9d003010:	00452804 	sllv	a1,a1,v0
9d003014:	00641806 	srlv	v1,a0,v1
9d003018:	00464004 	sllv	t0,a2,v0
9d00301c:	00651825 	or	v1,v1,a1
9d003020:	00444804 	sllv	t1,a0,v0
9d003024:	00083402 	srl	a2,t0,0x10
9d003028:	0066001b 	divu	zero,v1,a2
9d00302c:	00c001f4 	teq	a2,zero,0x7
9d003030:	00002010 	mfhi	a0
9d003034:	00005812 	mflo	t3
9d003038:	310cffff 	andi	t4,t0,0xffff
9d00303c:	00095402 	srl	t2,t1,0x10
9d003040:	716c5802 	mul	t3,t3,t4
9d003044:	00042400 	sll	a0,a0,0x10
9d003048:	008a5025 	or	t2,a0,t2
9d00304c:	014b682b 	sltu	t5,t2,t3
9d003050:	0066001b 	divu	zero,v1,a2
9d003054:	00c001f4 	teq	a2,zero,0x7
9d003058:	51a00009 	beqzl	t5,9d003080 <__umoddi3+0x98>
9d00305c:	014b5023 	subu	t2,t2,t3
9d003060:	01485021 	addu	t2,t2,t0
9d003064:	0148182b 	sltu	v1,t2,t0
9d003068:	54600005 	bnezl	v1,9d003080 <__umoddi3+0x98>
9d00306c:	014b5023 	subu	t2,t2,t3
9d003070:	014b202b 	sltu	a0,t2,t3
9d003074:	01481821 	addu	v1,t2,t0
9d003078:	0064500b 	movn	t2,v1,a0
9d00307c:	014b5023 	subu	t2,t2,t3
9d003080:	3123ffff 	andi	v1,t1,0xffff
9d003084:	0146001b 	divu	zero,t2,a2
9d003088:	00c001f4 	teq	a2,zero,0x7
9d00308c:	00004810 	mfhi	t1
9d003090:	00002012 	mflo	a0
9d003094:	708c2002 	mul	a0,a0,t4
9d003098:	00094c00 	sll	t1,t1,0x10
9d00309c:	01234825 	or	t1,t1,v1
9d0030a0:	0124182b 	sltu	v1,t1,a0
9d0030a4:	0146001b 	divu	zero,t2,a2
9d0030a8:	00c001f4 	teq	a2,zero,0x7
9d0030ac:	50600009 	beqzl	v1,9d0030d4 <__umoddi3+0xec>
9d0030b0:	01244823 	subu	t1,t1,a0
9d0030b4:	01284821 	addu	t1,t1,t0
9d0030b8:	0128182b 	sltu	v1,t1,t0
9d0030bc:	54600005 	bnezl	v1,9d0030d4 <__umoddi3+0xec>
9d0030c0:	01244823 	subu	t1,t1,a0
9d0030c4:	0124182b 	sltu	v1,t1,a0
9d0030c8:	01284021 	addu	t0,t1,t0
9d0030cc:	0103480b 	movn	t1,t0,v1
9d0030d0:	01244823 	subu	t1,t1,a0
9d0030d4:	00491006 	srlv	v0,t1,v0
9d0030d8:	03e00008 	jr	ra
9d0030dc:	00001821 	move	v1,zero
9d0030e0:	00a7102b 	sltu	v0,a1,a3
9d0030e4:	14400047 	bnez	v0,9d003204 <__umoddi3+0x21c>
9d0030e8:	70ea5020 	clz	t2,a3
9d0030ec:	15400048 	bnez	t2,9d003210 <__umoddi3+0x228>
9d0030f0:	240b0020 	li	t3,32
9d0030f4:	00e5102b 	sltu	v0,a3,a1
9d0030f8:	14400005 	bnez	v0,9d003110 <__umoddi3+0x128>
9d0030fc:	00861023 	subu	v0,a0,a2
9d003100:	0086402b 	sltu	t0,a0,a2
9d003104:	15000089 	bnez	t0,9d00332c <__umoddi3+0x344>
9d003108:	00801021 	move	v0,a0
9d00310c:	00861023 	subu	v0,a0,a2
9d003110:	00a72823 	subu	a1,a1,a3
9d003114:	0082202b 	sltu	a0,a0,v0
9d003118:	03e00008 	jr	ra
9d00311c:	00a41823 	subu	v1,a1,a0
9d003120:	14c00006 	bnez	a2,9d00313c <__umoddi3+0x154>
9d003124:	71021020 	clz	v0,t0
9d003128:	24020001 	li	v0,1
9d00312c:	0046001b 	divu	zero,v0,a2
9d003130:	00c001f4 	teq	a2,zero,0x7
9d003134:	00004012 	mflo	t0
9d003138:	71021020 	clz	v0,t0
9d00313c:	5440007d 	bnezl	v0,9d003334 <__umoddi3+0x34c>
9d003140:	00484004 	sllv	t0,t0,v0
9d003144:	00a82823 	subu	a1,a1,t0
9d003148:	00081c02 	srl	v1,t0,0x10
9d00314c:	3107ffff 	andi	a3,t0,0xffff
9d003150:	00092402 	srl	a0,t1,0x10
9d003154:	00a3001b 	divu	zero,a1,v1
9d003158:	006001f4 	teq	v1,zero,0x7
9d00315c:	00005010 	mfhi	t2
9d003160:	00003012 	mflo	a2
9d003164:	70c73002 	mul	a2,a2,a3
9d003168:	000a5400 	sll	t2,t2,0x10
9d00316c:	01442025 	or	a0,t2,a0
9d003170:	0086502b 	sltu	t2,a0,a2
9d003174:	00a3001b 	divu	zero,a1,v1
9d003178:	006001f4 	teq	v1,zero,0x7
9d00317c:	51400009 	beqzl	t2,9d0031a4 <__umoddi3+0x1bc>
9d003180:	00862023 	subu	a0,a0,a2
9d003184:	00882021 	addu	a0,a0,t0
9d003188:	0088282b 	sltu	a1,a0,t0
9d00318c:	54a00005 	bnezl	a1,9d0031a4 <__umoddi3+0x1bc>
9d003190:	00862023 	subu	a0,a0,a2
9d003194:	0086502b 	sltu	t2,a0,a2
9d003198:	00882821 	addu	a1,a0,t0
9d00319c:	00aa200b 	movn	a0,a1,t2
9d0031a0:	00862023 	subu	a0,a0,a2
9d0031a4:	3126ffff 	andi	a2,t1,0xffff
9d0031a8:	0083001b 	divu	zero,a0,v1
9d0031ac:	006001f4 	teq	v1,zero,0x7
9d0031b0:	00004810 	mfhi	t1
9d0031b4:	00002812 	mflo	a1
9d0031b8:	70a72802 	mul	a1,a1,a3
9d0031bc:	00094c00 	sll	t1,t1,0x10
9d0031c0:	01264825 	or	t1,t1,a2
9d0031c4:	0125302b 	sltu	a2,t1,a1
9d0031c8:	0083001b 	divu	zero,a0,v1
9d0031cc:	006001f4 	teq	v1,zero,0x7
9d0031d0:	50c00009 	beqzl	a2,9d0031f8 <__umoddi3+0x210>
9d0031d4:	01254823 	subu	t1,t1,a1
9d0031d8:	01284821 	addu	t1,t1,t0
9d0031dc:	0128182b 	sltu	v1,t1,t0
9d0031e0:	54600005 	bnezl	v1,9d0031f8 <__umoddi3+0x210>
9d0031e4:	01254823 	subu	t1,t1,a1
9d0031e8:	0125182b 	sltu	v1,t1,a1
9d0031ec:	01284021 	addu	t0,t1,t0
9d0031f0:	0103480b 	movn	t1,t0,v1
9d0031f4:	01254823 	subu	t1,t1,a1
9d0031f8:	00491006 	srlv	v0,t1,v0
9d0031fc:	03e00008 	jr	ra
9d003200:	00001821 	move	v1,zero
9d003204:	00801021 	move	v0,a0
9d003208:	03e00008 	jr	ra
9d00320c:	00a01821 	move	v1,a1
9d003210:	016a5823 	subu	t3,t3,t2
9d003214:	01473804 	sllv	a3,a3,t2
9d003218:	01661006 	srlv	v0,a2,t3
9d00321c:	00473825 	or	a3,v0,a3
9d003220:	01656806 	srlv	t5,a1,t3
9d003224:	00074c02 	srl	t1,a3,0x10
9d003228:	01a9001b 	divu	zero,t5,t1
9d00322c:	012001f4 	teq	t1,zero,0x7
9d003230:	00006010 	mfhi	t4
9d003234:	00001812 	mflo	v1
9d003238:	30eeffff 	andi	t6,a3,0xffff
9d00323c:	01452804 	sllv	a1,a1,t2
9d003240:	01641006 	srlv	v0,a0,t3
9d003244:	00451025 	or	v0,v0,a1
9d003248:	00022c02 	srl	a1,v0,0x10
9d00324c:	01463004 	sllv	a2,a2,t2
9d003250:	00004012 	mflo	t0
9d003254:	706e7802 	mul	t7,v1,t6
9d003258:	000c6400 	sll	t4,t4,0x10
9d00325c:	01856025 	or	t4,t4,a1
9d003260:	018f282b 	sltu	a1,t4,t7
9d003264:	01a9001b 	divu	zero,t5,t1
9d003268:	012001f4 	teq	t1,zero,0x7
9d00326c:	10a0000a 	beqz	a1,9d003298 <__umoddi3+0x2b0>
9d003270:	01442004 	sllv	a0,a0,t2
9d003274:	01876021 	addu	t4,t4,a3
9d003278:	0187282b 	sltu	a1,t4,a3
9d00327c:	14a00006 	bnez	a1,9d003298 <__umoddi3+0x2b0>
9d003280:	2468ffff 	addiu	t0,v1,-1
9d003284:	018f282b 	sltu	a1,t4,t7
9d003288:	50a00004 	beqzl	a1,9d00329c <__umoddi3+0x2b4>
9d00328c:	018f6023 	subu	t4,t4,t7
9d003290:	2468fffe 	addiu	t0,v1,-2
9d003294:	01876021 	addu	t4,t4,a3
9d003298:	018f6023 	subu	t4,t4,t7
9d00329c:	3042ffff 	andi	v0,v0,0xffff
9d0032a0:	0189001b 	divu	zero,t4,t1
9d0032a4:	012001f4 	teq	t1,zero,0x7
9d0032a8:	00002810 	mfhi	a1
9d0032ac:	00001812 	mflo	v1
9d0032b0:	00006812 	mflo	t5
9d0032b4:	706e7002 	mul	t6,v1,t6
9d0032b8:	00052c00 	sll	a1,a1,0x10
9d0032bc:	00a21025 	or	v0,a1,v0
9d0032c0:	004e282b 	sltu	a1,v0,t6
9d0032c4:	0189001b 	divu	zero,t4,t1
9d0032c8:	012001f4 	teq	t1,zero,0x7
9d0032cc:	50a00006 	beqzl	a1,9d0032e8 <__umoddi3+0x300>
9d0032d0:	00084400 	sll	t0,t0,0x10
9d0032d4:	00471021 	addu	v0,v0,a3
9d0032d8:	0047282b 	sltu	a1,v0,a3
9d0032dc:	10a0004c 	beqz	a1,9d003410 <__umoddi3+0x428>
9d0032e0:	246dffff 	addiu	t5,v1,-1
9d0032e4:	00084400 	sll	t0,t0,0x10
9d0032e8:	01a84025 	or	t0,t5,t0
9d0032ec:	004e1023 	subu	v0,v0,t6
9d0032f0:	01060019 	multu	t0,a2
9d0032f4:	00004810 	mfhi	t1
9d0032f8:	0049182b 	sltu	v1,v0,t1
9d0032fc:	1460003e 	bnez	v1,9d0033f8 <__umoddi3+0x410>
9d003300:	00004012 	mflo	t0
9d003304:	1049004b 	beq	v0,t1,9d003434 <__umoddi3+0x44c>
9d003308:	00491823 	subu	v1,v0,t1
9d00330c:	00003012 	mflo	a2
9d003310:	00863023 	subu	a2,a0,a2
9d003314:	0086202b 	sltu	a0,a0,a2
9d003318:	00641823 	subu	v1,v1,a0
9d00331c:	01631004 	sllv	v0,v1,t3
9d003320:	01463006 	srlv	a2,a2,t2
9d003324:	00461025 	or	v0,v0,a2
9d003328:	01431806 	srlv	v1,v1,t2
9d00332c:	03e00008 	jr	ra
9d003330:	00000000 	nop
9d003334:	24090020 	li	t1,32
9d003338:	01224823 	subu	t1,t1,v0
9d00333c:	01255006 	srlv	t2,a1,t1
9d003340:	00081c02 	srl	v1,t0,0x10
9d003344:	0143001b 	divu	zero,t2,v1
9d003348:	006001f4 	teq	v1,zero,0x7
9d00334c:	00003010 	mfhi	a2
9d003350:	00005812 	mflo	t3
9d003354:	3107ffff 	andi	a3,t0,0xffff
9d003358:	00452804 	sllv	a1,a1,v0
9d00335c:	01244806 	srlv	t1,a0,t1
9d003360:	01252825 	or	a1,t1,a1
9d003364:	00056402 	srl	t4,a1,0x10
9d003368:	00444804 	sllv	t1,a0,v0
9d00336c:	71675802 	mul	t3,t3,a3
9d003370:	00063400 	sll	a2,a2,0x10
9d003374:	01863025 	or	a2,t4,a2
9d003378:	00cb202b 	sltu	a0,a2,t3
9d00337c:	0143001b 	divu	zero,t2,v1
9d003380:	006001f4 	teq	v1,zero,0x7
9d003384:	50800006 	beqzl	a0,9d0033a0 <__umoddi3+0x3b8>
9d003388:	00cb3023 	subu	a2,a2,t3
9d00338c:	00c83021 	addu	a2,a2,t0
9d003390:	00c8202b 	sltu	a0,a2,t0
9d003394:	10800024 	beqz	a0,9d003428 <__umoddi3+0x440>
9d003398:	00cb502b 	sltu	t2,a2,t3
9d00339c:	00cb3023 	subu	a2,a2,t3
9d0033a0:	30aaffff 	andi	t2,a1,0xffff
9d0033a4:	00c3001b 	divu	zero,a2,v1
9d0033a8:	006001f4 	teq	v1,zero,0x7
9d0033ac:	00002010 	mfhi	a0
9d0033b0:	00002812 	mflo	a1
9d0033b4:	70a72802 	mul	a1,a1,a3
9d0033b8:	00042400 	sll	a0,a0,0x10
9d0033bc:	008a2025 	or	a0,a0,t2
9d0033c0:	0085502b 	sltu	t2,a0,a1
9d0033c4:	00c3001b 	divu	zero,a2,v1
9d0033c8:	006001f4 	teq	v1,zero,0x7
9d0033cc:	5140ff60 	beqzl	t2,9d003150 <__umoddi3+0x168>
9d0033d0:	00852823 	subu	a1,a0,a1
9d0033d4:	00882021 	addu	a0,a0,t0
9d0033d8:	0088302b 	sltu	a2,a0,t0
9d0033dc:	54c0ff5c 	bnezl	a2,9d003150 <__umoddi3+0x168>
9d0033e0:	00852823 	subu	a1,a0,a1
9d0033e4:	0085502b 	sltu	t2,a0,a1
9d0033e8:	00883021 	addu	a2,a0,t0
9d0033ec:	00ca200b 	movn	a0,a2,t2
9d0033f0:	0b400c54 	j	9d003150 <__umoddi3+0x168>
9d0033f4:	00852823 	subu	a1,a0,a1
9d0033f8:	01063023 	subu	a2,t0,a2
9d0033fc:	01271823 	subu	v1,t1,a3
9d003400:	0106402b 	sltu	t0,t0,a2
9d003404:	00681823 	subu	v1,v1,t0
9d003408:	0b400cc4 	j	9d003310 <__umoddi3+0x328>
9d00340c:	00431823 	subu	v1,v0,v1
9d003410:	004e282b 	sltu	a1,v0,t6
9d003414:	50a0ffb4 	beqzl	a1,9d0032e8 <__umoddi3+0x300>
9d003418:	00084400 	sll	t0,t0,0x10
9d00341c:	246dfffe 	addiu	t5,v1,-2
9d003420:	0b400cb9 	j	9d0032e4 <__umoddi3+0x2fc>
9d003424:	00471021 	addu	v0,v0,a3
9d003428:	00c82021 	addu	a0,a2,t0
9d00342c:	0b400ce7 	j	9d00339c <__umoddi3+0x3b4>
9d003430:	008a300b 	movn	a2,a0,t2
9d003434:	0088182b 	sltu	v1,a0,t0
9d003438:	5460fff0 	bnezl	v1,9d0033fc <__umoddi3+0x414>
9d00343c:	01063023 	subu	a2,t0,a2
9d003440:	00003012 	mflo	a2
9d003444:	0b400cc4 	j	9d003310 <__umoddi3+0x328>
9d003448:	00001821 	move	v1,zero

Disassembly of section .text:

9d00344c <__udivdi3>:
9d00344c:	00c04021 	move	t0,a2
9d003450:	00801021 	move	v0,a0
9d003454:	14e0003f 	bnez	a3,9d003554 <__udivdi3+0x108>
9d003458:	00a04821 	move	t1,a1
9d00345c:	00a6182b 	sltu	v1,a1,a2
9d003460:	10600047 	beqz	v1,9d003580 <__udivdi3+0x134>
9d003464:	70c31820 	clz	v1,a2
9d003468:	50600008 	beqzl	v1,9d00348c <__udivdi3+0x40>
9d00346c:	00081c02 	srl	v1,t0,0x10
9d003470:	00034823 	negu	t1,v1
9d003474:	00652804 	sllv	a1,a1,v1
9d003478:	01244806 	srlv	t1,a0,t1
9d00347c:	00664004 	sllv	t0,a2,v1
9d003480:	01254825 	or	t1,t1,a1
9d003484:	00641004 	sllv	v0,a0,v1
9d003488:	00081c02 	srl	v1,t0,0x10
9d00348c:	0123001b 	divu	zero,t1,v1
9d003490:	006001f4 	teq	v1,zero,0x7
9d003494:	00006010 	mfhi	t4
9d003498:	00005812 	mflo	t3
9d00349c:	310affff 	andi	t2,t0,0xffff
9d0034a0:	00022402 	srl	a0,v0,0x10
9d0034a4:	00003012 	mflo	a2
9d0034a8:	716a3802 	mul	a3,t3,t2
9d0034ac:	000c6400 	sll	t4,t4,0x10
9d0034b0:	01842025 	or	a0,t4,a0
9d0034b4:	0087602b 	sltu	t4,a0,a3
9d0034b8:	0123001b 	divu	zero,t1,v1
9d0034bc:	006001f4 	teq	v1,zero,0x7
9d0034c0:	1180000b 	beqz	t4,9d0034f0 <__udivdi3+0xa4>
9d0034c4:	00872823 	subu	a1,a0,a3
9d0034c8:	00882021 	addu	a0,a0,t0
9d0034cc:	0088282b 	sltu	a1,a0,t0
9d0034d0:	14a00006 	bnez	a1,9d0034ec <__udivdi3+0xa0>
9d0034d4:	2566ffff 	addiu	a2,t3,-1
9d0034d8:	0087282b 	sltu	a1,a0,a3
9d0034dc:	10a00004 	beqz	a1,9d0034f0 <__udivdi3+0xa4>
9d0034e0:	00872823 	subu	a1,a0,a3
9d0034e4:	2566fffe 	addiu	a2,t3,-2
9d0034e8:	00882021 	addu	a0,a0,t0
9d0034ec:	00872823 	subu	a1,a0,a3
9d0034f0:	3042ffff 	andi	v0,v0,0xffff
9d0034f4:	00a3001b 	divu	zero,a1,v1
9d0034f8:	006001f4 	teq	v1,zero,0x7
9d0034fc:	00004810 	mfhi	t1
9d003500:	00003812 	mflo	a3
9d003504:	00002012 	mflo	a0
9d003508:	70ea5002 	mul	t2,a3,t2
9d00350c:	00094c00 	sll	t1,t1,0x10
9d003510:	01221025 	or	v0,t1,v0
9d003514:	004a482b 	sltu	t1,v0,t2
9d003518:	00a3001b 	divu	zero,a1,v1
9d00351c:	006001f4 	teq	v1,zero,0x7
9d003520:	51200009 	beqzl	t1,9d003548 <__udivdi3+0xfc>
9d003524:	00061400 	sll	v0,a2,0x10
9d003528:	00481021 	addu	v0,v0,t0
9d00352c:	0048402b 	sltu	t0,v0,t0
9d003530:	15000004 	bnez	t0,9d003544 <__udivdi3+0xf8>
9d003534:	24e4ffff 	addiu	a0,a3,-1
9d003538:	004a502b 	sltu	t2,v0,t2
9d00353c:	24e7fffe 	addiu	a3,a3,-2
9d003540:	00ea200b 	movn	a0,a3,t2
9d003544:	00061400 	sll	v0,a2,0x10
9d003548:	00821025 	or	v0,a0,v0
9d00354c:	03e00008 	jr	ra
9d003550:	00001821 	move	v1,zero
9d003554:	00a7102b 	sltu	v0,a1,a3
9d003558:	14400044 	bnez	v0,9d00366c <__udivdi3+0x220>
9d00355c:	70e84020 	clz	t0,a3
9d003560:	55000045 	bnezl	t0,9d003678 <__udivdi3+0x22c>
9d003564:	24020020 	li	v0,32
9d003568:	00e5282b 	sltu	a1,a3,a1
9d00356c:	14a000c8 	bnez	a1,9d003890 <__udivdi3+0x444>
9d003570:	0086302b 	sltu	a2,a0,a2
9d003574:	38c20001 	xori	v0,a2,0x1
9d003578:	03e00008 	jr	ra
9d00357c:	00001821 	move	v1,zero
9d003580:	14c00006 	bnez	a2,9d00359c <__udivdi3+0x150>
9d003584:	71031820 	clz	v1,t0
9d003588:	24030001 	li	v1,1
9d00358c:	0066001b 	divu	zero,v1,a2
9d003590:	00c001f4 	teq	a2,zero,0x7
9d003594:	00004012 	mflo	t0
9d003598:	71031820 	clz	v1,t0
9d00359c:	5460007b 	bnezl	v1,9d00378c <__udivdi3+0x340>
9d0035a0:	00684004 	sllv	t0,t0,v1
9d0035a4:	00a82023 	subu	a0,a1,t0
9d0035a8:	00083c02 	srl	a3,t0,0x10
9d0035ac:	310bffff 	andi	t3,t0,0xffff
9d0035b0:	24030001 	li	v1,1
9d0035b4:	00023402 	srl	a2,v0,0x10
9d0035b8:	0087001b 	divu	zero,a0,a3
9d0035bc:	00e001f4 	teq	a3,zero,0x7
9d0035c0:	00006810 	mfhi	t5
9d0035c4:	00006012 	mflo	t4
9d0035c8:	00004812 	mflo	t1
9d0035cc:	718b5002 	mul	t2,t4,t3
9d0035d0:	000d6c00 	sll	t5,t5,0x10
9d0035d4:	01a63025 	or	a2,t5,a2
9d0035d8:	00ca682b 	sltu	t5,a2,t2
9d0035dc:	0087001b 	divu	zero,a0,a3
9d0035e0:	00e001f4 	teq	a3,zero,0x7
9d0035e4:	11a00009 	beqz	t5,9d00360c <__udivdi3+0x1c0>
9d0035e8:	00ca2823 	subu	a1,a2,t2
9d0035ec:	00c83021 	addu	a2,a2,t0
9d0035f0:	00c8202b 	sltu	a0,a2,t0
9d0035f4:	14800004 	bnez	a0,9d003608 <__udivdi3+0x1bc>
9d0035f8:	2589ffff 	addiu	t1,t4,-1
9d0035fc:	00ca202b 	sltu	a0,a2,t2
9d003600:	548000a6 	bnezl	a0,9d00389c <__udivdi3+0x450>
9d003604:	2589fffe 	addiu	t1,t4,-2
9d003608:	00ca2823 	subu	a1,a2,t2
9d00360c:	3042ffff 	andi	v0,v0,0xffff
9d003610:	00a7001b 	divu	zero,a1,a3
9d003614:	00e001f4 	teq	a3,zero,0x7
9d003618:	00005010 	mfhi	t2
9d00361c:	00003012 	mflo	a2
9d003620:	00002012 	mflo	a0
9d003624:	70cb5802 	mul	t3,a2,t3
9d003628:	000a5400 	sll	t2,t2,0x10
9d00362c:	01421025 	or	v0,t2,v0
9d003630:	004b502b 	sltu	t2,v0,t3
9d003634:	00a7001b 	divu	zero,a1,a3
9d003638:	00e001f4 	teq	a3,zero,0x7
9d00363c:	51400009 	beqzl	t2,9d003664 <__udivdi3+0x218>
9d003640:	00091400 	sll	v0,t1,0x10
9d003644:	00481021 	addu	v0,v0,t0
9d003648:	0048402b 	sltu	t0,v0,t0
9d00364c:	15000004 	bnez	t0,9d003660 <__udivdi3+0x214>
9d003650:	24c4ffff 	addiu	a0,a2,-1
9d003654:	004b582b 	sltu	t3,v0,t3
9d003658:	24c6fffe 	addiu	a2,a2,-2
9d00365c:	00cb200b 	movn	a0,a2,t3
9d003660:	00091400 	sll	v0,t1,0x10
9d003664:	03e00008 	jr	ra
9d003668:	00821025 	or	v0,a0,v0
9d00366c:	00001821 	move	v1,zero
9d003670:	03e00008 	jr	ra
9d003674:	00001021 	move	v0,zero
9d003678:	00481023 	subu	v0,v0,t0
9d00367c:	01073804 	sllv	a3,a3,t0
9d003680:	00461806 	srlv	v1,a2,v0
9d003684:	00673825 	or	a3,v1,a3
9d003688:	00455006 	srlv	t2,a1,v0
9d00368c:	00071c02 	srl	v1,a3,0x10
9d003690:	0143001b 	divu	zero,t2,v1
9d003694:	006001f4 	teq	v1,zero,0x7
9d003698:	00004810 	mfhi	t1
9d00369c:	00006812 	mflo	t5
9d0036a0:	30ebffff 	andi	t3,a3,0xffff
9d0036a4:	01052804 	sllv	a1,a1,t0
9d0036a8:	00441006 	srlv	v0,a0,v0
9d0036ac:	00452825 	or	a1,v0,a1
9d0036b0:	00057402 	srl	t6,a1,0x10
9d0036b4:	00001012 	mflo	v0
9d0036b8:	71ab6002 	mul	t4,t5,t3
9d0036bc:	00094c00 	sll	t1,t1,0x10
9d0036c0:	012e4825 	or	t1,t1,t6
9d0036c4:	012c702b 	sltu	t6,t1,t4
9d0036c8:	0143001b 	divu	zero,t2,v1
9d0036cc:	006001f4 	teq	v1,zero,0x7
9d0036d0:	11c0000a 	beqz	t6,9d0036fc <__udivdi3+0x2b0>
9d0036d4:	01063004 	sllv	a2,a2,t0
9d0036d8:	01274821 	addu	t1,t1,a3
9d0036dc:	0127502b 	sltu	t2,t1,a3
9d0036e0:	15400006 	bnez	t2,9d0036fc <__udivdi3+0x2b0>
9d0036e4:	25a2ffff 	addiu	v0,t5,-1
9d0036e8:	012c502b 	sltu	t2,t1,t4
9d0036ec:	51400004 	beqzl	t2,9d003700 <__udivdi3+0x2b4>
9d0036f0:	012c4823 	subu	t1,t1,t4
9d0036f4:	25a2fffe 	addiu	v0,t5,-2
9d0036f8:	01274821 	addu	t1,t1,a3
9d0036fc:	012c4823 	subu	t1,t1,t4
9d003700:	30a5ffff 	andi	a1,a1,0xffff
9d003704:	0123001b 	divu	zero,t1,v1
9d003708:	006001f4 	teq	v1,zero,0x7
9d00370c:	00006810 	mfhi	t5
9d003710:	00006012 	mflo	t4
9d003714:	00005012 	mflo	t2
9d003718:	718b5802 	mul	t3,t4,t3
9d00371c:	000d6c00 	sll	t5,t5,0x10
9d003720:	01a52825 	or	a1,t5,a1
9d003724:	00ab682b 	sltu	t5,a1,t3
9d003728:	0123001b 	divu	zero,t1,v1
9d00372c:	006001f4 	teq	v1,zero,0x7
9d003730:	51a0000b 	beqzl	t5,9d003760 <__udivdi3+0x314>
9d003734:	00021400 	sll	v0,v0,0x10
9d003738:	00a72821 	addu	a1,a1,a3
9d00373c:	00a7182b 	sltu	v1,a1,a3
9d003740:	14600006 	bnez	v1,9d00375c <__udivdi3+0x310>
9d003744:	258affff 	addiu	t2,t4,-1
9d003748:	00ab182b 	sltu	v1,a1,t3
9d00374c:	50600004 	beqzl	v1,9d003760 <__udivdi3+0x314>
9d003750:	00021400 	sll	v0,v0,0x10
9d003754:	258afffe 	addiu	t2,t4,-2
9d003758:	00a72821 	addu	a1,a1,a3
9d00375c:	00021400 	sll	v0,v0,0x10
9d003760:	01421025 	or	v0,t2,v0
9d003764:	00ab2823 	subu	a1,a1,t3
9d003768:	00460019 	multu	v0,a2
9d00376c:	00003810 	mfhi	a3
9d003770:	00a7182b 	sltu	v1,a1,a3
9d003774:	14600044 	bnez	v1,9d003888 <__udivdi3+0x43c>
9d003778:	00003012 	mflo	a2
9d00377c:	10a7003f 	beq	a1,a3,9d00387c <__udivdi3+0x430>
9d003780:	01042004 	sllv	a0,a0,t0
9d003784:	03e00008 	jr	ra
9d003788:	00001821 	move	v1,zero
9d00378c:	24020020 	li	v0,32
9d003790:	00431023 	subu	v0,v0,v1
9d003794:	00454806 	srlv	t1,a1,v0
9d003798:	00083c02 	srl	a3,t0,0x10
9d00379c:	0127001b 	divu	zero,t1,a3
9d0037a0:	00e001f4 	teq	a3,zero,0x7
9d0037a4:	00003010 	mfhi	a2
9d0037a8:	00006012 	mflo	t4
9d0037ac:	310bffff 	andi	t3,t0,0xffff
9d0037b0:	00652804 	sllv	a1,a1,v1
9d0037b4:	00441006 	srlv	v0,a0,v0
9d0037b8:	00452825 	or	a1,v0,a1
9d0037bc:	00056c02 	srl	t5,a1,0x10
9d0037c0:	00641004 	sllv	v0,a0,v1
9d0037c4:	00001812 	mflo	v1
9d0037c8:	718b5002 	mul	t2,t4,t3
9d0037cc:	00063400 	sll	a2,a2,0x10
9d0037d0:	01a63025 	or	a2,t5,a2
9d0037d4:	00ca202b 	sltu	a0,a2,t2
9d0037d8:	0127001b 	divu	zero,t1,a3
9d0037dc:	00e001f4 	teq	a3,zero,0x7
9d0037e0:	5080000b 	beqzl	a0,9d003810 <__udivdi3+0x3c4>
9d0037e4:	00ca3023 	subu	a2,a2,t2
9d0037e8:	00c83021 	addu	a2,a2,t0
9d0037ec:	00c8202b 	sltu	a0,a2,t0
9d0037f0:	14800006 	bnez	a0,9d00380c <__udivdi3+0x3c0>
9d0037f4:	2583ffff 	addiu	v1,t4,-1
9d0037f8:	00ca202b 	sltu	a0,a2,t2
9d0037fc:	50800004 	beqzl	a0,9d003810 <__udivdi3+0x3c4>
9d003800:	00ca3023 	subu	a2,a2,t2
9d003804:	2583fffe 	addiu	v1,t4,-2
9d003808:	00c83021 	addu	a2,a2,t0
9d00380c:	00ca3023 	subu	a2,a2,t2
9d003810:	30acffff 	andi	t4,a1,0xffff
9d003814:	00c7001b 	divu	zero,a2,a3
9d003818:	00e001f4 	teq	a3,zero,0x7
9d00381c:	00002010 	mfhi	a0
9d003820:	00005012 	mflo	t2
9d003824:	00004812 	mflo	t1
9d003828:	714b2802 	mul	a1,t2,t3
9d00382c:	00042400 	sll	a0,a0,0x10
9d003830:	008c2025 	or	a0,a0,t4
9d003834:	0085602b 	sltu	t4,a0,a1
9d003838:	00c7001b 	divu	zero,a2,a3
9d00383c:	00e001f4 	teq	a3,zero,0x7
9d003840:	5180000b 	beqzl	t4,9d003870 <__udivdi3+0x424>
9d003844:	00031c00 	sll	v1,v1,0x10
9d003848:	00882021 	addu	a0,a0,t0
9d00384c:	0088302b 	sltu	a2,a0,t0
9d003850:	14c00006 	bnez	a2,9d00386c <__udivdi3+0x420>
9d003854:	2549ffff 	addiu	t1,t2,-1
9d003858:	0085302b 	sltu	a2,a0,a1
9d00385c:	50c00004 	beqzl	a2,9d003870 <__udivdi3+0x424>
9d003860:	00031c00 	sll	v1,v1,0x10
9d003864:	2549fffe 	addiu	t1,t2,-2
9d003868:	00882021 	addu	a0,a0,t0
9d00386c:	00031c00 	sll	v1,v1,0x10
9d003870:	00852023 	subu	a0,a0,a1
9d003874:	0b400d6d 	j	9d0035b4 <__udivdi3+0x168>
9d003878:	01231825 	or	v1,t1,v1
9d00387c:	0086302b 	sltu	a2,a0,a2
9d003880:	10c0ffc0 	beqz	a2,9d003784 <__udivdi3+0x338>
9d003884:	00000000 	nop
9d003888:	0b400de1 	j	9d003784 <__udivdi3+0x338>
9d00388c:	2442ffff 	addiu	v0,v0,-1
9d003890:	00001821 	move	v1,zero
9d003894:	03e00008 	jr	ra
9d003898:	24020001 	li	v0,1
9d00389c:	0b400d82 	j	9d003608 <__udivdi3+0x1bc>
9d0038a0:	00c83021 	addu	a2,a2,t0

9d0038a4 <NU32_Startup>:

// Perform startup routines:
//  Make NU32_LED1 and NU32_LED2 pins outputs (NU32_USER is by default an input)
//  Initialize the serial port - UART3 (no interrupt) 
//  Enable interrupts
void NU32_Startup() {
9d0038a4:	27bdfff8 	addiu	sp,sp,-8
9d0038a8:	afbf0004 	sw	ra,4(sp)
9d0038ac:	afbe0000 	sw	s8,0(sp)
9d0038b0:	03a0f021 	move	s8,sp
  // disable interrupts
  __builtin_disable_interrupts();
9d0038b4:	41626000 	di	v0
9d0038b8:	000000c0 	ehb
9d0038bc:	00000000 	nop
  // see Chapter 2 "CPU for Devices with M4K Core" of the PIC32 reference manual
  // most of the other bits have prescribed values
  // microchip does not provide a _CP0_SET_CONFIG macro, so we directly use
  // the compiler built-in command _mtc0
  // to disable cache, use 0xa4210582 
  __builtin_mtc0(_CP0_CONFIG, _CP0_CONFIG_SELECT, 0xa4210583); 
9d0038c0:	3c02a421 	lui	v0,0xa421
9d0038c4:	34420583 	ori	v0,v0,0x583
9d0038c8:	40828000 	mtc0	v0,c0_config
9d0038cc:	000000c0 	ehb
  
  // set the prefectch cache wait state to 2, as per the
  // electrical characteristics data sheet
  CHECONbits.PFMWS = 0x2;   
9d0038d0:	3c03bf88 	lui	v1,0xbf88
9d0038d4:	8c624000 	lw	v0,16384(v1)
9d0038d8:	24040002 	li	a0,2
9d0038dc:	7c821004 	ins	v0,a0,0x0,0x3
9d0038e0:	ac624000 	sw	v0,16384(v1)

  //enable prefetch for cacheable and noncacheable memory
  CHECONbits.PREFEN = 0x3; 
9d0038e4:	3c03bf88 	lui	v1,0xbf88
9d0038e8:	8c624000 	lw	v0,16384(v1)
9d0038ec:	24040003 	li	a0,3
9d0038f0:	7c822904 	ins	v0,a0,0x4,0x2
9d0038f4:	ac624000 	sw	v0,16384(v1)

  // 0 data RAM access wait states
  BMXCONbits.BMXWSDRM = 0x0;
9d0038f8:	3c03bf88 	lui	v1,0xbf88
9d0038fc:	8c622000 	lw	v0,8192(v1)
9d003900:	7c023184 	ins	v0,zero,0x6,0x1
9d003904:	ac622000 	sw	v0,8192(v1)
  
  // enable multi vector interrupts
  INTCONbits.MVEC = 0x1;
9d003908:	3c03bf88 	lui	v1,0xbf88
9d00390c:	8c621000 	lw	v0,4096(v1)
9d003910:	24040001 	li	a0,1
9d003914:	7c826304 	ins	v0,a0,0xc,0x1
9d003918:	ac621000 	sw	v0,4096(v1)

  // disable JTAG to get B10, B11, B12 and B13 back
  DDPCONbits.JTAGEN = 0;
9d00391c:	3c03bf81 	lui	v1,0xbf81
9d003920:	9062f200 	lbu	v0,-3584(v1)
9d003924:	7c0218c4 	ins	v0,zero,0x3,0x1
9d003928:	a062f200 	sb	v0,-3584(v1)

  TRISFCLR = 0x0003;  // Make F0 and F1 outputs (LED1 and LED2)
9d00392c:	3c02bf88 	lui	v0,0xbf88
9d003930:	24030003 	li	v1,3
9d003934:	ac436144 	sw	v1,24900(v0)
  NU32_LED1 = 1;      // LED1 is off
9d003938:	3c03bf88 	lui	v1,0xbf88
9d00393c:	90626160 	lbu	v0,24928(v1)
9d003940:	24040001 	li	a0,1
9d003944:	7c820004 	ins	v0,a0,0x0,0x1
9d003948:	a0626160 	sb	v0,24928(v1)
  NU32_LED2 = 0;      // LED2 is on
9d00394c:	3c03bf88 	lui	v1,0xbf88
9d003950:	90626160 	lbu	v0,24928(v1)
9d003954:	7c020844 	ins	v0,zero,0x1,0x1
9d003958:	a0626160 	sb	v0,24928(v1)

  // turn on UART3 without an interrupt
  U3MODEbits.BRGH = 0; // set baud to NU32_DESIRED_BAUD
9d00395c:	3c03bf80 	lui	v1,0xbf80
9d003960:	94626400 	lhu	v0,25600(v1)
9d003964:	7c0218c4 	ins	v0,zero,0x3,0x1
9d003968:	a4626400 	sh	v0,25600(v1)
  U3BRG = ((NU32_SYS_FREQ / NU32_DESIRED_BAUD) / 16) - 1;
9d00396c:	3c02bf80 	lui	v0,0xbf80
9d003970:	24030014 	li	v1,20
9d003974:	ac436440 	sw	v1,25664(v0)

  // 8 bit, no parity bit, and 1 stop bit (8N1 setup)
  U3MODEbits.PDSEL = 0;
9d003978:	3c03bf80 	lui	v1,0xbf80
9d00397c:	94626400 	lhu	v0,25600(v1)
9d003980:	7c021044 	ins	v0,zero,0x1,0x2
9d003984:	a4626400 	sh	v0,25600(v1)
  U3MODEbits.STSEL = 0;
9d003988:	3c03bf80 	lui	v1,0xbf80
9d00398c:	94626400 	lhu	v0,25600(v1)
9d003990:	7c020004 	ins	v0,zero,0x0,0x1
9d003994:	a4626400 	sh	v0,25600(v1)

  // configure TX & RX pins as output & input pins
  U3STAbits.UTXEN = 1;
9d003998:	3c03bf80 	lui	v1,0xbf80
9d00399c:	8c626410 	lw	v0,25616(v1)
9d0039a0:	24040001 	li	a0,1
9d0039a4:	7c825284 	ins	v0,a0,0xa,0x1
9d0039a8:	ac626410 	sw	v0,25616(v1)
  U3STAbits.URXEN = 1;
9d0039ac:	3c03bf80 	lui	v1,0xbf80
9d0039b0:	8c626410 	lw	v0,25616(v1)
9d0039b4:	24040001 	li	a0,1
9d0039b8:	7c826304 	ins	v0,a0,0xc,0x1
9d0039bc:	ac626410 	sw	v0,25616(v1)
  // configure hardware flow control using RTS and CTS
  U3MODEbits.UEN = 2;
9d0039c0:	3c03bf80 	lui	v1,0xbf80
9d0039c4:	94626400 	lhu	v0,25600(v1)
9d0039c8:	24040002 	li	a0,2
9d0039cc:	7c824a04 	ins	v0,a0,0x8,0x2
9d0039d0:	a4626400 	sh	v0,25600(v1)

  // enable the uart
  U3MODEbits.ON = 1;
9d0039d4:	3c03bf80 	lui	v1,0xbf80
9d0039d8:	94626400 	lhu	v0,25600(v1)
9d0039dc:	24040001 	li	a0,1
9d0039e0:	7c827bc4 	ins	v0,a0,0xf,0x1
9d0039e4:	a4626400 	sh	v0,25600(v1)

  __builtin_enable_interrupts();
9d0039e8:	41626020 	ei	v0
}
9d0039ec:	03c0e821 	move	sp,s8
9d0039f0:	8fbf0004 	lw	ra,4(sp)
9d0039f4:	8fbe0000 	lw	s8,0(sp)
9d0039f8:	27bd0008 	addiu	sp,sp,8
9d0039fc:	03e00008 	jr	ra
9d003a00:	00000000 	nop

9d003a04 <NU32_ReadUART3>:

// Read from UART3
// block other functions until you get a '\r' or '\n'
// send the pointer to your char array and the number of elements in the array
void NU32_ReadUART3(char * message, int maxLength) {
9d003a04:	27bdffe8 	addiu	sp,sp,-24
9d003a08:	afbe0014 	sw	s8,20(sp)
9d003a0c:	03a0f021 	move	s8,sp
9d003a10:	afc40018 	sw	a0,24(s8)
9d003a14:	afc5001c 	sw	a1,28(s8)
  char data = 0;
9d003a18:	a3c00008 	sb	zero,8(s8)
  int complete = 0, num_bytes = 0;
9d003a1c:	afc00000 	sw	zero,0(s8)
9d003a20:	afc00004 	sw	zero,4(s8)
  // loop until you get a '\r' or '\n'
  while (!complete) {
9d003a24:	0b400ead 	j	9d003ab4 <NU32_ReadUART3+0xb0>
9d003a28:	00000000 	nop
    if (U3STAbits.URXDA) { // if data is available
9d003a2c:	3c02bf80 	lui	v0,0xbf80
9d003a30:	8c426410 	lw	v0,25616(v0)
9d003a34:	30420001 	andi	v0,v0,0x1
9d003a38:	1040001e 	beqz	v0,9d003ab4 <NU32_ReadUART3+0xb0>
9d003a3c:	00000000 	nop
      data = U3RXREG;      // read the data
9d003a40:	3c02bf80 	lui	v0,0xbf80
9d003a44:	8c426430 	lw	v0,25648(v0)
9d003a48:	a3c20008 	sb	v0,8(s8)
      if ((data == '\n') || (data == '\r')) {
9d003a4c:	83c30008 	lb	v1,8(s8)
9d003a50:	2402000a 	li	v0,10
9d003a54:	10620005 	beq	v1,v0,9d003a6c <NU32_ReadUART3+0x68>
9d003a58:	00000000 	nop
9d003a5c:	83c30008 	lb	v1,8(s8)
9d003a60:	2402000d 	li	v0,13
9d003a64:	14620005 	bne	v1,v0,9d003a7c <NU32_ReadUART3+0x78>
9d003a68:	00000000 	nop
        complete = 1;
9d003a6c:	24020001 	li	v0,1
9d003a70:	afc20000 	sw	v0,0(s8)
9d003a74:	0b400ead 	j	9d003ab4 <NU32_ReadUART3+0xb0>
9d003a78:	00000000 	nop
      } else {
        message[num_bytes] = data;
9d003a7c:	8fc20004 	lw	v0,4(s8)
9d003a80:	8fc30018 	lw	v1,24(s8)
9d003a84:	00621021 	addu	v0,v1,v0
9d003a88:	93c30008 	lbu	v1,8(s8)
9d003a8c:	a0430000 	sb	v1,0(v0)
        ++num_bytes;
9d003a90:	8fc20004 	lw	v0,4(s8)
9d003a94:	24420001 	addiu	v0,v0,1
9d003a98:	afc20004 	sw	v0,4(s8)
        // roll over if the array is too small
        if (num_bytes >= maxLength) {
9d003a9c:	8fc30004 	lw	v1,4(s8)
9d003aa0:	8fc2001c 	lw	v0,28(s8)
9d003aa4:	0062102a 	slt	v0,v1,v0
9d003aa8:	14400002 	bnez	v0,9d003ab4 <NU32_ReadUART3+0xb0>
9d003aac:	00000000 	nop
          num_bytes = 0;
9d003ab0:	afc00004 	sw	zero,4(s8)
// send the pointer to your char array and the number of elements in the array
void NU32_ReadUART3(char * message, int maxLength) {
  char data = 0;
  int complete = 0, num_bytes = 0;
  // loop until you get a '\r' or '\n'
  while (!complete) {
9d003ab4:	8fc20000 	lw	v0,0(s8)
9d003ab8:	1040ffdc 	beqz	v0,9d003a2c <NU32_ReadUART3+0x28>
9d003abc:	00000000 	nop
        }
      }
    }
  }
  // end the string
  message[num_bytes] = '\0';
9d003ac0:	8fc20004 	lw	v0,4(s8)
9d003ac4:	8fc30018 	lw	v1,24(s8)
9d003ac8:	00621021 	addu	v0,v1,v0
9d003acc:	a0400000 	sb	zero,0(v0)
}
9d003ad0:	03c0e821 	move	sp,s8
9d003ad4:	8fbe0014 	lw	s8,20(sp)
9d003ad8:	27bd0018 	addiu	sp,sp,24
9d003adc:	03e00008 	jr	ra
9d003ae0:	00000000 	nop

9d003ae4 <NU32_WriteUART3>:

// Write a character array using UART3
void NU32_WriteUART3(const char * string) {
9d003ae4:	27bdfff8 	addiu	sp,sp,-8
9d003ae8:	afbe0004 	sw	s8,4(sp)
9d003aec:	03a0f021 	move	s8,sp
9d003af0:	afc40008 	sw	a0,8(s8)
  while (*string != '\0') {
9d003af4:	0b400ecd 	j	9d003b34 <NU32_WriteUART3+0x50>
9d003af8:	00000000 	nop
    while (U3STAbits.UTXBF) {
9d003afc:	00000000 	nop
9d003b00:	3c02bf80 	lui	v0,0xbf80
9d003b04:	8c426410 	lw	v0,25616(v0)
9d003b08:	30420200 	andi	v0,v0,0x200
9d003b0c:	1440fffc 	bnez	v0,9d003b00 <NU32_WriteUART3+0x1c>
9d003b10:	00000000 	nop
      ; // wait until tx buffer isn't full
    }
    U3TXREG = *string;
9d003b14:	8fc20008 	lw	v0,8(s8)
9d003b18:	80420000 	lb	v0,0(v0)
9d003b1c:	00401821 	move	v1,v0
9d003b20:	3c02bf80 	lui	v0,0xbf80
9d003b24:	ac436420 	sw	v1,25632(v0)
    ++string;
9d003b28:	8fc20008 	lw	v0,8(s8)
9d003b2c:	24420001 	addiu	v0,v0,1
9d003b30:	afc20008 	sw	v0,8(s8)
  message[num_bytes] = '\0';
}

// Write a character array using UART3
void NU32_WriteUART3(const char * string) {
  while (*string != '\0') {
9d003b34:	8fc20008 	lw	v0,8(s8)
9d003b38:	80420000 	lb	v0,0(v0)
9d003b3c:	1440ffef 	bnez	v0,9d003afc <NU32_WriteUART3+0x18>
9d003b40:	00000000 	nop
      ; // wait until tx buffer isn't full
    }
    U3TXREG = *string;
    ++string;
  }
}
9d003b44:	03c0e821 	move	sp,s8
9d003b48:	8fbe0004 	lw	s8,4(sp)
9d003b4c:	27bd0008 	addiu	sp,sp,8
9d003b50:	03e00008 	jr	ra
9d003b54:	00000000 	nop

Disassembly of section .text:

9d003b58 <main>:
#define MSG_LEN 20
#define MAXCYCLES 5000000

void delay(int cycles);

int main(void) {
9d003b58:	27bdffb8 	addiu	sp,sp,-72
9d003b5c:	afbf0044 	sw	ra,68(sp)
9d003b60:	afbe0040 	sw	s8,64(sp)
9d003b64:	03a0f021 	move	s8,sp
  char count[MSG_LEN];
  char msg[MSG_LEN];
  int i = 5;
9d003b68:	24020005 	li	v0,5
9d003b6c:	afc20010 	sw	v0,16(s8)
  int cycles = MAXCYCLES;
9d003b70:	3c02004c 	lui	v0,0x4c
9d003b74:	34424b40 	ori	v0,v0,0x4b40
9d003b78:	afc20014 	sw	v0,20(s8)

  NU32_Startup();
9d003b7c:	0f400e29 	jal	9d0038a4 <NU32_Startup>
9d003b80:	00000000 	nop
  LCD_Setup();
9d003b84:	0f400a49 	jal	9d002924 <LCD_Setup>
9d003b88:	00000000 	nop

  while (i >= 0) {
9d003b8c:	0b400efc 	j	9d003bf0 <main+0x98>
9d003b90:	00000000 	nop
    delay(cycles);
9d003b94:	8fc40014 	lw	a0,20(s8)
9d003b98:	0f400f14 	jal	9d003c50 <delay>
9d003b9c:	00000000 	nop
    LCD_Clear();
9d003ba0:	0f400aa5 	jal	9d002a94 <LCD_Clear>
9d003ba4:	00000000 	nop
    LCD_Move(0, 7);
9d003ba8:	00002021 	move	a0,zero
9d003bac:	24050007 	li	a1,7
9d003bb0:	0f400b31 	jal	9d002cc4 <LCD_Move>
9d003bb4:	00000000 	nop
    sprintf(count, "%d", i);
9d003bb8:	27c20018 	addiu	v0,s8,24
9d003bbc:	00402021 	move	a0,v0
9d003bc0:	3c029d00 	lui	v0,0x9d00
9d003bc4:	24454940 	addiu	a1,v0,18752
9d003bc8:	8fc60010 	lw	a2,16(s8)
9d003bcc:	0f401164 	jal	9d004590 <_sprintf_cdnopuxX>
9d003bd0:	00000000 	nop
    LCD_WriteString(count);
9d003bd4:	27c20018 	addiu	v0,s8,24
9d003bd8:	00402021 	move	a0,v0
9d003bdc:	0f400b70 	jal	9d002dc0 <LCD_WriteString>
9d003be0:	00000000 	nop
    i = i - 1;
9d003be4:	8fc20010 	lw	v0,16(s8)
9d003be8:	2442ffff 	addiu	v0,v0,-1
9d003bec:	afc20010 	sw	v0,16(s8)
  int cycles = MAXCYCLES;

  NU32_Startup();
  LCD_Setup();

  while (i >= 0) {
9d003bf0:	8fc20010 	lw	v0,16(s8)
9d003bf4:	0441ffe7 	bgez	v0,9d003b94 <main+0x3c>
9d003bf8:	00000000 	nop
    LCD_Move(0, 7);
    sprintf(count, "%d", i);
    LCD_WriteString(count);
    i = i - 1;
  }
  LCD_Move(1, 5);
9d003bfc:	24040001 	li	a0,1
9d003c00:	24050005 	li	a1,5
9d003c04:	0f400b31 	jal	9d002cc4 <LCD_Move>
9d003c08:	00000000 	nop
  sprintf(msg, "W00T!");
9d003c0c:	27c2002c 	addiu	v0,s8,44
9d003c10:	3c035430 	lui	v1,0x5430
9d003c14:	34633057 	ori	v1,v1,0x3057
9d003c18:	ac430000 	sw	v1,0(v0)
9d003c1c:	24030021 	li	v1,33
9d003c20:	a4430004 	sh	v1,4(v0)
  LCD_WriteString(msg);
9d003c24:	27c2002c 	addiu	v0,s8,44
9d003c28:	00402021 	move	a0,v0
9d003c2c:	0f400b70 	jal	9d002dc0 <LCD_WriteString>
9d003c30:	00000000 	nop


  return (0);
9d003c34:	00001021 	move	v0,zero
}
9d003c38:	03c0e821 	move	sp,s8
9d003c3c:	8fbf0044 	lw	ra,68(sp)
9d003c40:	8fbe0040 	lw	s8,64(sp)
9d003c44:	27bd0048 	addiu	sp,sp,72
9d003c48:	03e00008 	jr	ra
9d003c4c:	00000000 	nop

9d003c50 <delay>:

void delay(int cycles) {
9d003c50:	27bdfff0 	addiu	sp,sp,-16
9d003c54:	afbe000c 	sw	s8,12(sp)
9d003c58:	03a0f021 	move	s8,sp
9d003c5c:	afc40010 	sw	a0,16(s8)
  int j;
  for (j = 0; j < cycles; j++) { // number is 1 million
9d003c60:	afc00000 	sw	zero,0(s8)
9d003c64:	0b400f24 	j	9d003c90 <delay+0x40>
9d003c68:	00000000 	nop
    while(!PORTDbits.RD7) {
9d003c6c:	00000000 	nop
9d003c70:	3c02bf88 	lui	v0,0xbf88
9d003c74:	8c4260d0 	lw	v0,24784(v0)
9d003c78:	30420080 	andi	v0,v0,0x80
9d003c7c:	1040fffc 	beqz	v0,9d003c70 <delay+0x20>
9d003c80:	00000000 	nop
  return (0);
}

void delay(int cycles) {
  int j;
  for (j = 0; j < cycles; j++) { // number is 1 million
9d003c84:	8fc20000 	lw	v0,0(s8)
9d003c88:	24420001 	addiu	v0,v0,1
9d003c8c:	afc20000 	sw	v0,0(s8)
9d003c90:	8fc30000 	lw	v1,0(s8)
9d003c94:	8fc20010 	lw	v0,16(s8)
9d003c98:	0062102a 	slt	v0,v1,v0
9d003c9c:	1440fff3 	bnez	v0,9d003c6c <delay+0x1c>
9d003ca0:	00000000 	nop
    while(!PORTDbits.RD7) {
        ;   // Pin D7 is the USER switch, low (FALSE) if pressed.
    }
  }
}
9d003ca4:	03c0e821 	move	sp,s8
9d003ca8:	8fbe000c 	lw	s8,12(sp)
9d003cac:	27bd0010 	addiu	sp,sp,16
9d003cb0:	03e00008 	jr	ra
9d003cb4:	00000000 	nop

Disassembly of section .text._outcnvrt:

9d003cb8 <_outcnvrt>:
9d003cb8:	27bdffc8 	addiu	sp,sp,-56
9d003cbc:	afbf0034 	sw	ra,52(sp)
9d003cc0:	afb70030 	sw	s7,48(sp)
9d003cc4:	afb6002c 	sw	s6,44(sp)
9d003cc8:	afb50028 	sw	s5,40(sp)
9d003ccc:	afb40024 	sw	s4,36(sp)
9d003cd0:	afb30020 	sw	s3,32(sp)
9d003cd4:	afb2001c 	sw	s2,28(sp)
9d003cd8:	afb10018 	sw	s1,24(sp)
9d003cdc:	afb00014 	sw	s0,20(sp)
9d003ce0:	00808821 	move	s1,a0
9d003ce4:	00a08021 	move	s0,a1
9d003ce8:	97b70048 	lhu	s7,72(sp)
9d003cec:	32f70008 	andi	s7,s7,0x8
9d003cf0:	32f7ffff 	andi	s7,s7,0xffff
9d003cf4:	00c0a021 	move	s4,a2
9d003cf8:	00e0a821 	move	s5,a3
9d003cfc:	16e00003 	bnez	s7,9d003d0c <_outcnvrt+0x54>
9d003d00:	00c7b02a 	slt	s6,a2,a3
9d003d04:	16c0002a 	bnez	s6,9d003db0 <_outcnvrt+0xf8>
9d003d08:	00000000 	nop
9d003d0c:	02149021 	addu	s2,s0,s4
9d003d10:	0b400f4b 	j	9d003d2c <_outcnvrt+0x74>
9d003d14:	2413ffff 	li	s3,-1
9d003d18:	26100001 	addiu	s0,s0,1
9d003d1c:	0f4010d4 	jal	9d004350 <fputc>
9d003d20:	8204ffff 	lb	a0,-1(s0)
9d003d24:	10530007 	beq	v0,s3,9d003d44 <_outcnvrt+0x8c>
9d003d28:	02a01021 	move	v0,s5
9d003d2c:	1612fffa 	bne	s0,s2,9d003d18 <_outcnvrt+0x60>
9d003d30:	02202821 	move	a1,s1
9d003d34:	12e00003 	beqz	s7,9d003d44 <_outcnvrt+0x8c>
9d003d38:	02a01021 	move	v0,s5
9d003d3c:	56c0000d 	bnezl	s6,9d003d74 <_outcnvrt+0xbc>
9d003d40:	02202021 	move	a0,s1
9d003d44:	0296100a 	movz	v0,s4,s6
9d003d48:	8fbf0034 	lw	ra,52(sp)
9d003d4c:	8fb70030 	lw	s7,48(sp)
9d003d50:	8fb6002c 	lw	s6,44(sp)
9d003d54:	8fb50028 	lw	s5,40(sp)
9d003d58:	8fb40024 	lw	s4,36(sp)
9d003d5c:	8fb30020 	lw	s3,32(sp)
9d003d60:	8fb2001c 	lw	s2,28(sp)
9d003d64:	8fb10018 	lw	s1,24(sp)
9d003d68:	8fb00014 	lw	s0,20(sp)
9d003d6c:	03e00008 	jr	ra
9d003d70:	27bd0038 	addiu	sp,sp,56
9d003d74:	0f4010a9 	jal	9d0042a4 <.LFE0>
9d003d78:	02b42823 	subu	a1,s5,s4
9d003d7c:	02a01021 	move	v0,s5
9d003d80:	0296100a 	movz	v0,s4,s6
9d003d84:	8fbf0034 	lw	ra,52(sp)
9d003d88:	8fb70030 	lw	s7,48(sp)
9d003d8c:	8fb6002c 	lw	s6,44(sp)
9d003d90:	8fb50028 	lw	s5,40(sp)
9d003d94:	8fb40024 	lw	s4,36(sp)
9d003d98:	8fb30020 	lw	s3,32(sp)
9d003d9c:	8fb2001c 	lw	s2,28(sp)
9d003da0:	8fb10018 	lw	s1,24(sp)
9d003da4:	8fb00014 	lw	s0,20(sp)
9d003da8:	03e00008 	jr	ra
9d003dac:	27bd0038 	addiu	sp,sp,56
9d003db0:	0f4010a9 	jal	9d0042a4 <.LFE0>
9d003db4:	00e62823 	subu	a1,a3,a2
9d003db8:	2403ffff 	li	v1,-1
9d003dbc:	1443ffd3 	bne	v0,v1,9d003d0c <_outcnvrt+0x54>
9d003dc0:	02a01021 	move	v0,s5
9d003dc4:	0296100a 	movz	v0,s4,s6
9d003dc8:	8fbf0034 	lw	ra,52(sp)
9d003dcc:	8fb70030 	lw	s7,48(sp)
9d003dd0:	8fb6002c 	lw	s6,44(sp)
9d003dd4:	8fb50028 	lw	s5,40(sp)
9d003dd8:	8fb40024 	lw	s4,36(sp)
9d003ddc:	8fb30020 	lw	s3,32(sp)
9d003de0:	8fb2001c 	lw	s2,28(sp)
9d003de4:	8fb10018 	lw	s1,24(sp)
9d003de8:	8fb00014 	lw	s0,20(sp)
9d003dec:	03e00008 	jr	ra
9d003df0:	27bd0038 	addiu	sp,sp,56

Disassembly of section .dinit:

9d003df4 <.dinit>:
9d003df4:	a000000c 	sb	zero,12(zero)
9d003df8:	000000d4 	0xd4
9d003dfc:	00000001 	movf	zero,zero,$fcc0
9d003e00:	a0000070 	sb	zero,112(zero)
9d003e04:	a000008c 	sb	zero,140(zero)
9d003e08:	a00000a8 	sb	zero,168(zero)
9d003e0c:	a000006c 	sb	zero,108(zero)
9d003e10:	a00000e0 	sb	zero,224(zero)
9d003e14:	00000001 	movf	zero,zero,$fcc0
	...
9d003e64:	ffffffff 	sdc3	$31,-1(ra)
9d003e68:	ffffffff 	sdc3	$31,-1(ra)
9d003e6c:	00000000 	nop
9d003e70:	00000040 	ssnop
9d003e74:	00001009 	jalr	v0,zero
9d003e78:	00000000 	nop
9d003e7c:	9d0048cc 	0x9d0048cc
9d003e80:	ffffffff 	sdc3	$31,-1(ra)
	...
9d003e90:	00011002 	srl	v0,at,0x0
9d003e94:	00000000 	nop
9d003e98:	9d0048cc 	0x9d0048cc
9d003e9c:	ffffffff 	sdc3	$31,-1(ra)
	...
9d003eac:	00020002 	srl	zero,v0,0x0
9d003eb0:	00000000 	nop
9d003eb4:	9d0048cc 	0x9d0048cc
9d003eb8:	fffffffd 	sdc3	$31,-3(ra)
	...
9d003ed4:	a00000e0 	sb	zero,224(zero)
9d003ed8:	00000088 	0x88
9d003edc:	00000000 	nop
9d003ee0:	a0000000 	sb	zero,0(zero)
9d003ee4:	00000004 	sllv	zero,zero,zero
9d003ee8:	00000001 	movf	zero,zero,$fcc0
9d003eec:	a000000c 	sb	zero,12(zero)
9d003ef0:	a0000008 	sb	zero,8(zero)
9d003ef4:	00000004 	sllv	zero,zero,zero
9d003ef8:	00000000 	nop
9d003efc:	a0000004 	sb	zero,4(zero)
9d003f00:	00000004 	sllv	zero,zero,zero
9d003f04:	00000001 	movf	zero,zero,$fcc0
9d003f08:	00000002 	srl	zero,zero,0x0
9d003f0c:	00000000 	nop
9d003f10:	22222222 	addi	v0,s1,8738

Disassembly of section .text._flsbuf_simple:

9d003f14 <_flsbuf_simple>:
9d003f14:	27bdffd8 	addiu	sp,sp,-40
9d003f18:	afbf0024 	sw	ra,36(sp)
9d003f1c:	afb10020 	sw	s1,32(sp)
9d003f20:	afb0001c 	sw	s0,28(sp)
9d003f24:	00a08021 	move	s0,a1
9d003f28:	8ca2000c 	lw	v0,12(a1)
9d003f2c:	1040002d 	beqz	v0,9d003fe4 <_flsbuf_simple+0xd0>
9d003f30:	00808821 	move	s1,a0
9d003f34:	8ca20000 	lw	v0,0(a1)
9d003f38:	24420001 	addiu	v0,v0,1
9d003f3c:	2403ffff 	li	v1,-1
9d003f40:	1043001e 	beq	v0,v1,9d003fbc <_flsbuf_simple+0xa8>
9d003f44:	aca20000 	sw	v0,0(a1)
9d003f48:	0f401124 	jal	9d004490 <_fflush_simple>
9d003f4c:	02002021 	move	a0,s0
9d003f50:	8e040000 	lw	a0,0(s0)
9d003f54:	8e020004 	lw	v0,4(s0)
9d003f58:	2484ffff 	addiu	a0,a0,-1
9d003f5c:	24430001 	addiu	v1,v0,1
9d003f60:	ae040000 	sw	a0,0(s0)
9d003f64:	ae030004 	sw	v1,4(s0)
9d003f68:	a0510000 	sb	s1,0(v0)
9d003f6c:	2402000a 	li	v0,10
9d003f70:	52220007 	beql	s1,v0,9d003f90 <_flsbuf_simple+0x7c>
9d003f74:	96020010 	lhu	v0,16(s0)
9d003f78:	02201021 	move	v0,s1
9d003f7c:	8fbf0024 	lw	ra,36(sp)
9d003f80:	8fb10020 	lw	s1,32(sp)
9d003f84:	8fb0001c 	lw	s0,28(sp)
9d003f88:	03e00008 	jr	ra
9d003f8c:	27bd0028 	addiu	sp,sp,40
9d003f90:	30420008 	andi	v0,v0,0x8
9d003f94:	1040fff9 	beqz	v0,9d003f7c <_flsbuf_simple+0x68>
9d003f98:	02201021 	move	v0,s1
9d003f9c:	0f401124 	jal	9d004490 <_fflush_simple>
9d003fa0:	02002021 	move	a0,s0
9d003fa4:	02201021 	move	v0,s1
9d003fa8:	8fbf0024 	lw	ra,36(sp)
9d003fac:	8fb10020 	lw	s1,32(sp)
9d003fb0:	8fb0001c 	lw	s0,28(sp)
9d003fb4:	03e00008 	jr	ra
9d003fb8:	27bd0028 	addiu	sp,sp,40
9d003fbc:	8ca20008 	lw	v0,8(a1)
9d003fc0:	1440ffe1 	bnez	v0,9d003f48 <_flsbuf_simple+0x34>
9d003fc4:	00000000 	nop
9d003fc8:	94a20010 	lhu	v0,16(a1)
9d003fcc:	aca00004 	sw	zero,4(a1)
9d003fd0:	aca0000c 	sw	zero,12(a1)
9d003fd4:	34420010 	ori	v0,v0,0x10
9d003fd8:	aca00000 	sw	zero,0(a1)
9d003fdc:	0b400fd2 	j	9d003f48 <_flsbuf_simple+0x34>
9d003fe0:	a4a20010 	sh	v0,16(a1)
9d003fe4:	27a40010 	addiu	a0,sp,16
9d003fe8:	24050001 	li	a1,1
9d003fec:	0f401194 	jal	9d004650 <_mon_write>
9d003ff0:	a3b10010 	sb	s1,16(sp)
9d003ff4:	ae000000 	sw	zero,0(s0)
9d003ff8:	02201021 	move	v0,s1
9d003ffc:	8fbf0024 	lw	ra,36(sp)
9d004000:	8fb10020 	lw	s1,32(sp)
9d004004:	8fb0001c 	lw	s0,28(sp)
9d004008:	03e00008 	jr	ra
9d00400c:	27bd0028 	addiu	sp,sp,40

Disassembly of section .text._mon_getc:

9d004010 <_mon_getc>:
9d004010:	27bdffe8 	addiu	sp,sp,-24

9d004014 <.LCFI0>:
9d004014:	afbf0014 	sw	ra,20(sp)
9d004018:	3c02a000 	lui	v0,0xa000
9d00401c:	8c420004 	lw	v0,4(v0)
9d004020:	1440000a 	bnez	v0,9d00404c <.LCFI0+0x38>
9d004024:	24030002 	li	v1,2
9d004028:	3c020000 	lui	v0,0x0
9d00402c:	24420000 	addiu	v0,v0,0
9d004030:	10400029 	beqz	v0,9d0040d8 <.LCFI0+0xc4>
9d004034:	3c020000 	lui	v0,0x0
9d004038:	0c000000 	jal	90000000 <_bmxdudba_address+0x8ffe0000>
9d00403c:	00000000 	nop
9d004040:	8fbf0014 	lw	ra,20(sp)
9d004044:	03e00008 	jr	ra
9d004048:	27bd0018 	addiu	sp,sp,24
9d00404c:	1043001c 	beq	v0,v1,9d0040c0 <.LCFI0+0xac>
9d004050:	3c02bf80 	lui	v0,0xbf80
9d004054:	3c02bf80 	lui	v0,0xbf80
9d004058:	8c426000 	lw	v0,24576(v0)
9d00405c:	3c05bf80 	lui	a1,0xbf80
9d004060:	24a56030 	addiu	a1,a1,24624
9d004064:	3c04bf80 	lui	a0,0xbf80
9d004068:	24846010 	addiu	a0,a0,24592
9d00406c:	30428000 	andi	v0,v0,0x8000
9d004070:	14400003 	bnez	v0,9d004080 <.LCFI0+0x6c>
9d004074:	34038000 	li	v1,0x8000
9d004078:	3c02bf80 	lui	v0,0xbf80
9d00407c:	ac436008 	sw	v1,24584(v0)
9d004080:	8c820000 	lw	v0,0(a0)
9d004084:	30420001 	andi	v0,v0,0x1
9d004088:	14400009 	bnez	v0,9d0040b0 <.LCFI0+0x9c>
9d00408c:	240200a0 	li	v0,160
9d004090:	0b401028 	j	9d0040a0 <.LCFI0+0x8c>
9d004094:	00000000 	nop
9d004098:	10400005 	beqz	v0,9d0040b0 <.LCFI0+0x9c>
9d00409c:	00000000 	nop
9d0040a0:	8c830000 	lw	v1,0(a0)
9d0040a4:	30630001 	andi	v1,v1,0x1
9d0040a8:	1060fffb 	beqz	v1,9d004098 <.LCFI0+0x84>
9d0040ac:	2442ffff 	addiu	v0,v0,-1
9d0040b0:	8ca20000 	lw	v0,0(a1)
9d0040b4:	8fbf0014 	lw	ra,20(sp)
9d0040b8:	03e00008 	jr	ra
9d0040bc:	27bd0018 	addiu	sp,sp,24
9d0040c0:	8c426800 	lw	v0,26624(v0)
9d0040c4:	3c05bf80 	lui	a1,0xbf80
9d0040c8:	24a56830 	addiu	a1,a1,26672
9d0040cc:	3c04bf80 	lui	a0,0xbf80
9d0040d0:	0b40101b 	j	9d00406c <.LCFI0+0x58>
9d0040d4:	24846810 	addiu	a0,a0,26640
9d0040d8:	24420000 	addiu	v0,v0,0
9d0040dc:	5040ffde 	beqzl	v0,9d004058 <.LCFI0+0x44>
9d0040e0:	3c02bf80 	lui	v0,0xbf80
9d0040e4:	0c000000 	jal	90000000 <_bmxdudba_address+0x8ffe0000>
9d0040e8:	00000000 	nop
9d0040ec:	0b401011 	j	9d004044 <.LCFI0+0x30>
9d0040f0:	8fbf0014 	lw	ra,20(sp)

Disassembly of section .text.general_exception:

9d0040f4 <_general_exception_context>:
9d0040f4:	27bdffa8 	addiu	sp,sp,-88
9d0040f8:	afa10004 	sw	at,4(sp)
9d0040fc:	afa20008 	sw	v0,8(sp)
9d004100:	afa3000c 	sw	v1,12(sp)
9d004104:	afa40010 	sw	a0,16(sp)
9d004108:	afa50014 	sw	a1,20(sp)
9d00410c:	afa60018 	sw	a2,24(sp)
9d004110:	afa7001c 	sw	a3,28(sp)
9d004114:	afa80020 	sw	t0,32(sp)
9d004118:	afa90024 	sw	t1,36(sp)
9d00411c:	afaa0028 	sw	t2,40(sp)
9d004120:	afab002c 	sw	t3,44(sp)
9d004124:	afac0030 	sw	t4,48(sp)
9d004128:	afad0034 	sw	t5,52(sp)
9d00412c:	afae0038 	sw	t6,56(sp)
9d004130:	afaf003c 	sw	t7,60(sp)
9d004134:	afb80040 	sw	t8,64(sp)
9d004138:	afb90044 	sw	t9,68(sp)
9d00413c:	afbf0048 	sw	ra,72(sp)
9d004140:	00004012 	mflo	t0
9d004144:	afa8004c 	sw	t0,76(sp)
9d004148:	00004010 	mfhi	t0
9d00414c:	afa80050 	sw	t0,80(sp)
9d004150:	3c1a9d00 	lui	k0,0x9d00
9d004154:	275a46e4 	addiu	k0,k0,18148
9d004158:	00000000 	nop
9d00415c:	40046800 	mfc0	a0,c0_cause
9d004160:	40056000 	mfc0	a1,c0_status
9d004164:	0340f809 	jalr	k0
9d004168:	00000000 	nop
9d00416c:	8fa80050 	lw	t0,80(sp)
9d004170:	01000011 	mthi	t0
9d004174:	8fa8004c 	lw	t0,76(sp)
9d004178:	01000013 	mtlo	t0
9d00417c:	8fa10004 	lw	at,4(sp)
9d004180:	8fa20008 	lw	v0,8(sp)
9d004184:	8fa3000c 	lw	v1,12(sp)
9d004188:	8fa40010 	lw	a0,16(sp)
9d00418c:	8fa50014 	lw	a1,20(sp)
9d004190:	8fa60018 	lw	a2,24(sp)
9d004194:	8fa7001c 	lw	a3,28(sp)
9d004198:	8fa80020 	lw	t0,32(sp)
9d00419c:	8fa90024 	lw	t1,36(sp)
9d0041a0:	8faa0028 	lw	t2,40(sp)
9d0041a4:	8fab002c 	lw	t3,44(sp)
9d0041a8:	8fac0030 	lw	t4,48(sp)
9d0041ac:	8fad0034 	lw	t5,52(sp)
9d0041b0:	8fae0038 	lw	t6,56(sp)
9d0041b4:	8faf003c 	lw	t7,60(sp)
9d0041b8:	8fb80040 	lw	t8,64(sp)
9d0041bc:	8fb90044 	lw	t9,68(sp)
9d0041c0:	8fbf0048 	lw	ra,72(sp)
9d0041c4:	27bd0058 	addiu	sp,sp,88
9d0041c8:	000000c0 	ehb
9d0041cc:	42000018 	eret

Disassembly of section .text._mon_putc:

9d0041d0 <_mon_putc>:
9d0041d0:	27bdffe8 	addiu	sp,sp,-24

9d0041d4 <.LCFI0>:
9d0041d4:	afbf0014 	sw	ra,20(sp)
9d0041d8:	3c02a000 	lui	v0,0xa000
9d0041dc:	8c420004 	lw	v0,4(v0)
9d0041e0:	1440000a 	bnez	v0,9d00420c <.LCFI0+0x38>
9d0041e4:	00802821 	move	a1,a0
9d0041e8:	3c020000 	lui	v0,0x0
9d0041ec:	24420000 	addiu	v0,v0,0
9d0041f0:	10400025 	beqz	v0,9d004288 <.LCFI0+0xb4>
9d0041f4:	3c020000 	lui	v0,0x0
9d0041f8:	0c000000 	jal	90000000 <_bmxdudba_address+0x8ffe0000>
9d0041fc:	00000000 	nop
9d004200:	8fbf0014 	lw	ra,20(sp)
9d004204:	03e00008 	jr	ra
9d004208:	27bd0018 	addiu	sp,sp,24
9d00420c:	24030001 	li	v1,1
9d004210:	10430015 	beq	v0,v1,9d004268 <.LCFI0+0x94>
9d004214:	3c04bf80 	lui	a0,0xbf80
9d004218:	3c04bf80 	lui	a0,0xbf80
9d00421c:	24846820 	addiu	a0,a0,26656
9d004220:	3c02bf80 	lui	v0,0xbf80
9d004224:	24426818 	addiu	v0,v0,26648
9d004228:	3c06bf80 	lui	a2,0xbf80
9d00422c:	24c66808 	addiu	a2,a2,26632
9d004230:	3c03bf80 	lui	v1,0xbf80
9d004234:	24636810 	addiu	v1,v1,26640
9d004238:	34078000 	li	a3,0x8000
9d00423c:	acc70000 	sw	a3,0(a2)
9d004240:	24060400 	li	a2,1024
9d004244:	ac460000 	sw	a2,0(v0)
9d004248:	8c620000 	lw	v0,0(v1)
9d00424c:	30420100 	andi	v0,v0,0x100
9d004250:	1040fffd 	beqz	v0,9d004248 <.LCFI0+0x74>
9d004254:	00000000 	nop
9d004258:	ac850000 	sw	a1,0(a0)
9d00425c:	8fbf0014 	lw	ra,20(sp)
9d004260:	03e00008 	jr	ra
9d004264:	27bd0018 	addiu	sp,sp,24
9d004268:	24846020 	addiu	a0,a0,24608
9d00426c:	3c02bf80 	lui	v0,0xbf80
9d004270:	24426018 	addiu	v0,v0,24600
9d004274:	3c06bf80 	lui	a2,0xbf80
9d004278:	24c66008 	addiu	a2,a2,24584
9d00427c:	3c03bf80 	lui	v1,0xbf80
9d004280:	0b40108e 	j	9d004238 <.LCFI0+0x64>
9d004284:	24636010 	addiu	v1,v1,24592
9d004288:	24420000 	addiu	v0,v0,0
9d00428c:	5040ffe3 	beqzl	v0,9d00421c <.LCFI0+0x48>
9d004290:	3c04bf80 	lui	a0,0xbf80
9d004294:	0c000000 	jal	90000000 <_bmxdudba_address+0x8ffe0000>
9d004298:	00000000 	nop
9d00429c:	0b401081 	j	9d004204 <.LCFI0+0x30>
9d0042a0:	8fbf0014 	lw	ra,20(sp)

Disassembly of section .text.repl.constprop.0:

9d0042a4 <repl.constprop.0>:
9d0042a4:	27bdffd0 	addiu	sp,sp,-48
9d0042a8:	afbf002c 	sw	ra,44(sp)
9d0042ac:	afb60028 	sw	s6,40(sp)
9d0042b0:	afb50024 	sw	s5,36(sp)
9d0042b4:	afb40020 	sw	s4,32(sp)
9d0042b8:	afb3001c 	sw	s3,28(sp)
9d0042bc:	afb20018 	sw	s2,24(sp)
9d0042c0:	afb10014 	sw	s1,20(sp)
9d0042c4:	afb00010 	sw	s0,16(sp)
9d0042c8:	10a00016 	beqz	a1,9d004324 <repl.constprop.0+0x80>
9d0042cc:	00a0a021 	move	s4,a1
9d0042d0:	00809021 	move	s2,a0
9d0042d4:	3c159d00 	lui	s5,0x9d00
9d0042d8:	26b54824 	addiu	s5,s5,18468
9d0042dc:	24160020 	li	s6,32
9d0042e0:	2413ffff 	li	s3,-1
9d0042e4:	2e910021 	sltiu	s1,s4,33
9d0042e8:	02c01021 	move	v0,s6
9d0042ec:	0291100b 	movn	v0,s4,s1
9d0042f0:	0282a023 	subu	s4,s4,v0
9d0042f4:	02a28821 	addu	s1,s5,v0
9d0042f8:	0b4010c5 	j	9d004314 <repl.constprop.0+0x70>
9d0042fc:	02a08021 	move	s0,s5
9d004300:	26100001 	addiu	s0,s0,1
9d004304:	0f4010d4 	jal	9d004350 <fputc>
9d004308:	8204ffff 	lb	a0,-1(s0)
9d00430c:	10530007 	beq	v0,s3,9d00432c <repl.constprop.0+0x88>
9d004310:	8fbf002c 	lw	ra,44(sp)
9d004314:	1611fffa 	bne	s0,s1,9d004300 <repl.constprop.0+0x5c>
9d004318:	02402821 	move	a1,s2
9d00431c:	1680fff2 	bnez	s4,9d0042e8 <repl.constprop.0+0x44>
9d004320:	2e910021 	sltiu	s1,s4,33
9d004324:	00001021 	move	v0,zero
9d004328:	8fbf002c 	lw	ra,44(sp)
9d00432c:	8fb60028 	lw	s6,40(sp)
9d004330:	8fb50024 	lw	s5,36(sp)
9d004334:	8fb40020 	lw	s4,32(sp)
9d004338:	8fb3001c 	lw	s3,28(sp)
9d00433c:	8fb20018 	lw	s2,24(sp)
9d004340:	8fb10014 	lw	s1,20(sp)
9d004344:	8fb00010 	lw	s0,16(sp)
9d004348:	03e00008 	jr	ra
9d00434c:	27bd0030 	addiu	sp,sp,48

Disassembly of section .text.fputc:

9d004350 <fputc>:
9d004350:	27bdffe0 	addiu	sp,sp,-32
9d004354:	afbf001c 	sw	ra,28(sp)
9d004358:	afb10018 	sw	s1,24(sp)
9d00435c:	afb00014 	sw	s0,20(sp)
9d004360:	00a08021 	move	s0,a1
9d004364:	8ca20018 	lw	v0,24(a1)
9d004368:	00808821 	move	s1,a0
9d00436c:	24050001 	li	a1,1
9d004370:	8c420010 	lw	v0,16(v0)
9d004374:	0040f809 	jalr	v0
9d004378:	02002021 	move	a0,s0
9d00437c:	1040000e 	beqz	v0,9d0043b8 <fputc+0x68>
9d004380:	2402ffff 	li	v0,-1
9d004384:	8e020000 	lw	v0,0(s0)
9d004388:	2442ffff 	addiu	v0,v0,-1
9d00438c:	04400011 	bltz	v0,9d0043d4 <fputc+0x84>
9d004390:	ae020000 	sw	v0,0(s0)
9d004394:	96020010 	lhu	v0,16(s0)
9d004398:	30420008 	andi	v0,v0,0x8
9d00439c:	1440000b 	bnez	v0,9d0043cc <fputc+0x7c>
9d0043a0:	2402000a 	li	v0,10
9d0043a4:	8e030004 	lw	v1,4(s0)
9d0043a8:	02201021 	move	v0,s1
9d0043ac:	24640001 	addiu	a0,v1,1
9d0043b0:	ae040004 	sw	a0,4(s0)
9d0043b4:	a0710000 	sb	s1,0(v1)
9d0043b8:	8fbf001c 	lw	ra,28(sp)
9d0043bc:	8fb10018 	lw	s1,24(sp)
9d0043c0:	8fb00014 	lw	s0,20(sp)
9d0043c4:	03e00008 	jr	ra
9d0043c8:	27bd0020 	addiu	sp,sp,32
9d0043cc:	5622fff6 	bnel	s1,v0,9d0043a8 <fputc+0x58>
9d0043d0:	8e030004 	lw	v1,4(s0)
9d0043d4:	8e020018 	lw	v0,24(s0)
9d0043d8:	02202021 	move	a0,s1
9d0043dc:	8c420004 	lw	v0,4(v0)
9d0043e0:	0040f809 	jalr	v0
9d0043e4:	02002821 	move	a1,s0
9d0043e8:	8fbf001c 	lw	ra,28(sp)
9d0043ec:	8fb10018 	lw	s1,24(sp)
9d0043f0:	8fb00014 	lw	s0,20(sp)
9d0043f4:	03e00008 	jr	ra
9d0043f8:	27bd0020 	addiu	sp,sp,32

Disassembly of section .text.strlen:

9d0043fc <strlen>:
9d0043fc:	30830003 	andi	v1,a0,0x3
9d004400:	1460001e 	bnez	v1,9d00447c <strlen+0x80>
9d004404:	00801021 	move	v0,a0
9d004408:	8c820000 	lw	v0,0(a0)
9d00440c:	3c07fefe 	lui	a3,0xfefe
9d004410:	34e7feff 	ori	a3,a3,0xfeff
9d004414:	00471821 	addu	v1,v0,a3
9d004418:	00021027 	nor	v0,zero,v0
9d00441c:	3c068080 	lui	a2,0x8080
9d004420:	34c68080 	ori	a2,a2,0x8080
9d004424:	00621824 	and	v1,v1,v0
9d004428:	00661824 	and	v1,v1,a2
9d00442c:	14600013 	bnez	v1,9d00447c <strlen+0x80>
9d004430:	00801021 	move	v0,a0
9d004434:	24420004 	addiu	v0,v0,4
9d004438:	8c430000 	lw	v1,0(v0)
9d00443c:	00672821 	addu	a1,v1,a3
9d004440:	00031827 	nor	v1,zero,v1
9d004444:	00a31824 	and	v1,a1,v1
9d004448:	00661824 	and	v1,v1,a2
9d00444c:	5460000c 	bnezl	v1,9d004480 <strlen+0x84>
9d004450:	80430000 	lb	v1,0(v0)
9d004454:	24420004 	addiu	v0,v0,4
9d004458:	8c430000 	lw	v1,0(v0)
9d00445c:	00672821 	addu	a1,v1,a3
9d004460:	00031827 	nor	v1,zero,v1
9d004464:	00a31824 	and	v1,a1,v1
9d004468:	00661824 	and	v1,v1,a2
9d00446c:	5060fff2 	beqzl	v1,9d004438 <strlen+0x3c>
9d004470:	24420004 	addiu	v0,v0,4
9d004474:	0b401120 	j	9d004480 <strlen+0x84>
9d004478:	80430000 	lb	v1,0(v0)
9d00447c:	80430000 	lb	v1,0(v0)
9d004480:	5460fffe 	bnezl	v1,9d00447c <strlen+0x80>
9d004484:	24420001 	addiu	v0,v0,1
9d004488:	03e00008 	jr	ra
9d00448c:	00441023 	subu	v0,v0,a0

Disassembly of section .text._fflush_simple:

9d004490 <_fflush_simple>:
9d004490:	27bdffe8 	addiu	sp,sp,-24
9d004494:	afbf0014 	sw	ra,20(sp)
9d004498:	afb00010 	sw	s0,16(sp)
9d00449c:	94820010 	lhu	v0,16(a0)
9d0044a0:	30420002 	andi	v0,v0,0x2
9d0044a4:	10400013 	beqz	v0,9d0044f4 <_fflush_simple+0x64>
9d0044a8:	00808021 	move	s0,a0
9d0044ac:	8c850000 	lw	a1,0(a0)
9d0044b0:	04a0000c 	bltz	a1,9d0044e4 <_fflush_simple+0x54>
9d0044b4:	00001021 	move	v0,zero
9d0044b8:	8c82000c 	lw	v0,12(a0)
9d0044bc:	50a20006 	beql	a1,v0,9d0044d8 <_fflush_simple+0x48>
9d0044c0:	8e030008 	lw	v1,8(s0)
9d0044c4:	8c840008 	lw	a0,8(a0)
9d0044c8:	0f401194 	jal	9d004650 <_mon_write>
9d0044cc:	00452823 	subu	a1,v0,a1
9d0044d0:	8e02000c 	lw	v0,12(s0)
9d0044d4:	8e030008 	lw	v1,8(s0)
9d0044d8:	ae020000 	sw	v0,0(s0)
9d0044dc:	ae030004 	sw	v1,4(s0)
9d0044e0:	00001021 	move	v0,zero
9d0044e4:	8fbf0014 	lw	ra,20(sp)
9d0044e8:	8fb00010 	lw	s0,16(sp)
9d0044ec:	03e00008 	jr	ra
9d0044f0:	27bd0018 	addiu	sp,sp,24
9d0044f4:	2402ffff 	li	v0,-1
9d0044f8:	ac820004 	sw	v0,4(a0)
9d0044fc:	00001021 	move	v0,zero
9d004500:	8fbf0014 	lw	ra,20(sp)
9d004504:	8fb00010 	lw	s0,16(sp)
9d004508:	03e00008 	jr	ra
9d00450c:	27bd0018 	addiu	sp,sp,24

Disassembly of section .text._fwrite_simple:

9d004510 <_fwrite_simple>:
9d004510:	27bdffd8 	addiu	sp,sp,-40
9d004514:	afbf0024 	sw	ra,36(sp)
9d004518:	afb10020 	sw	s1,32(sp)
9d00451c:	afb0001c 	sw	s0,28(sp)
9d004520:	70c58002 	mul	s0,a2,a1
9d004524:	12000007 	beqz	s0,9d004544 <_fwrite_simple+0x34>
9d004528:	00001021 	move	v0,zero
9d00452c:	94e30010 	lhu	v1,16(a3)
9d004530:	30630001 	andi	v1,v1,0x1
9d004534:	10600008 	beqz	v1,9d004558 <_fwrite_simple+0x48>
9d004538:	3c03a000 	lui	v1,0xa000
9d00453c:	24040009 	li	a0,9
9d004540:	ac640008 	sw	a0,8(v1)
9d004544:	8fbf0024 	lw	ra,36(sp)
9d004548:	8fb10020 	lw	s1,32(sp)
9d00454c:	8fb0001c 	lw	s0,28(sp)
9d004550:	03e00008 	jr	ra
9d004554:	27bd0028 	addiu	sp,sp,40
9d004558:	00808821 	move	s1,a0
9d00455c:	00e02021 	move	a0,a3
9d004560:	0f401124 	jal	9d004490 <_fflush_simple>
9d004564:	afa60010 	sw	a2,16(sp)
9d004568:	02202021 	move	a0,s1
9d00456c:	0f401194 	jal	9d004650 <_mon_write>
9d004570:	02002821 	move	a1,s0
9d004574:	8fa60010 	lw	a2,16(sp)
9d004578:	00c01021 	move	v0,a2
9d00457c:	8fbf0024 	lw	ra,36(sp)
9d004580:	8fb10020 	lw	s1,32(sp)
9d004584:	8fb0001c 	lw	s0,28(sp)
9d004588:	03e00008 	jr	ra
9d00458c:	27bd0028 	addiu	sp,sp,40

Disassembly of section .text._sprintf_cdnopuxX:

9d004590 <_sprintf_cdnopuxX>:
9d004590:	27bdffc8 	addiu	sp,sp,-56
9d004594:	afbf0034 	sw	ra,52(sp)
9d004598:	27a20040 	addiu	v0,sp,64
9d00459c:	00801821 	move	v1,a0
9d0045a0:	afa60040 	sw	a2,64(sp)
9d0045a4:	27a40010 	addiu	a0,sp,16
9d0045a8:	00403021 	move	a2,v0
9d0045ac:	afa70044 	sw	a3,68(sp)
9d0045b0:	2407ffff 	li	a3,-1
9d0045b4:	a7a70022 	sh	a3,34(sp)
9d0045b8:	24070082 	li	a3,130
9d0045bc:	a7a70020 	sh	a3,32(sp)
9d0045c0:	3c077fff 	lui	a3,0x7fff
9d0045c4:	34e7fffe 	ori	a3,a3,0xfffe
9d0045c8:	afa70010 	sw	a3,16(sp)
9d0045cc:	afa30018 	sw	v1,24(sp)
9d0045d0:	afa30014 	sw	v1,20(sp)
9d0045d4:	3c039d00 	lui	v1,0x9d00
9d0045d8:	246348f4 	addiu	v1,v1,18676
9d0045dc:	afa30028 	sw	v1,40(sp)
9d0045e0:	0f400780 	jal	9d001e00 <_do_print_cdnopuxX>
9d0045e4:	afa2002c 	sw	v0,44(sp)
9d0045e8:	8fa30014 	lw	v1,20(sp)
9d0045ec:	a0600000 	sb	zero,0(v1)
9d0045f0:	8fbf0034 	lw	ra,52(sp)
9d0045f4:	03e00008 	jr	ra
9d0045f8:	27bd0038 	addiu	sp,sp,56

Disassembly of section .text.main_entry:

9d0045fc <_main_entry>:
9d0045fc:	3c040000 	lui	a0,0x0
9d004600:	27bdffe8 	addiu	sp,sp,-24
9d004604:	24840000 	addiu	a0,a0,0
9d004608:	10800003 	beqz	a0,9d004618 <_main_entry+0x1c>
9d00460c:	afbf0014 	sw	ra,20(sp)
9d004610:	0080f809 	jalr	a0
9d004614:	00000000 	nop
9d004618:	30840000 	andi	a0,a0,0x0
9d00461c:	30a50000 	andi	a1,a1,0x0
9d004620:	3c089d00 	lui	t0,0x9d00
9d004624:	25083b58 	addiu	t0,t0,15192
9d004628:	0100f809 	jalr	t0
9d00462c:	00000000 	nop

9d004630 <__crt0_exit>:
9d004630:	3c020000 24420000 10400003 00000000     ...<..B$..@.....
9d004640:	0040f809 00000000 1000fff9 00000000     ..@.............

Disassembly of section .text._mon_write:

9d004650 <_mon_write>:
9d004650:	27bdffe0 	addiu	sp,sp,-32

9d004654 <.LCFI0>:
9d004654:	afbf001c 	sw	ra,28(sp)
9d004658:	afb10018 	sw	s1,24(sp)
9d00465c:	afb00014 	sw	s0,20(sp)
9d004660:	10800009 	beqz	a0,9d004688 <.LCFI0+0x34>
9d004664:	00808021 	move	s0,a0
9d004668:	10a00007 	beqz	a1,9d004688 <.LCFI0+0x34>
9d00466c:	00a08821 	move	s1,a1
9d004670:	82040000 	lb	a0,0(s0)
9d004674:	2631ffff 	addiu	s1,s1,-1
9d004678:	0f401074 	jal	9d0041d0 <_mon_putc>
9d00467c:	26100001 	addiu	s0,s0,1
9d004680:	5620fffc 	bnezl	s1,9d004674 <.LCFI0+0x20>
9d004684:	82040000 	lb	a0,0(s0)
9d004688:	8fbf001c 	lw	ra,28(sp)
9d00468c:	8fb10018 	lw	s1,24(sp)
9d004690:	8fb00014 	lw	s0,20(sp)
9d004694:	03e00008 	jr	ra
9d004698:	27bd0020 	addiu	sp,sp,32

Disassembly of section .text._bootstrap_exception_handler:

9d00469c <_bootstrap_exception_handler>:
9d00469c:	3c020000 	lui	v0,0x0
9d0046a0:	24420000 	addiu	v0,v0,0
9d0046a4:	10400005 	beqz	v0,9d0046bc <_bootstrap_exception_handler+0x20>
9d0046a8:	3c020000 	lui	v0,0x0
9d0046ac:	24420000 	addiu	v0,v0,0
9d0046b0:	10400003 	beqz	v0,9d0046c0 <_bootstrap_exception_handler+0x24>
9d0046b4:	3c029d00 	lui	v0,0x9d00
9d0046b8:	7000003f 	sdbbp
9d0046bc:	3c029d00 	lui	v0,0x9d00
9d0046c0:	24424774 	addiu	v0,v0,18292
9d0046c4:	10400005 	beqz	v0,9d0046dc <.LCFI2>
9d0046c8:	00000000 	nop
9d0046cc:	27bdffe8 	addiu	sp,sp,-24

9d0046d0 <.LCFI0>:
9d0046d0:	afbf0014 	sw	ra,20(sp)
9d0046d4:	0040f809 	jalr	v0
9d0046d8:	00000000 	nop

9d0046dc <.LCFI2>:
9d0046dc:	0b4011b7 	j	9d0046dc <.LCFI2>
9d0046e0:	00000000 	nop

Disassembly of section .text._general_exception_handler:

9d0046e4 <_general_exception_handler>:
9d0046e4:	3c020000 	lui	v0,0x0
9d0046e8:	24420000 	addiu	v0,v0,0
9d0046ec:	10400005 	beqz	v0,9d004704 <_general_exception_handler+0x20>
9d0046f0:	3c020000 	lui	v0,0x0
9d0046f4:	24420000 	addiu	v0,v0,0
9d0046f8:	10400003 	beqz	v0,9d004708 <_general_exception_handler+0x24>
9d0046fc:	3c029d00 	lui	v0,0x9d00
9d004700:	7000003f 	sdbbp
9d004704:	3c029d00 	lui	v0,0x9d00
9d004708:	24424774 	addiu	v0,v0,18292
9d00470c:	10400005 	beqz	v0,9d004724 <.LCFI2>
9d004710:	00000000 	nop
9d004714:	27bdffe8 	addiu	sp,sp,-24

9d004718 <.LCFI0>:
9d004718:	afbf0014 	sw	ra,20(sp)
9d00471c:	0040f809 	jalr	v0
9d004720:	00000000 	nop

9d004724 <.LCFI2>:
9d004724:	0b4011c9 	j	9d004724 <.LCFI2>
9d004728:	00000000 	nop

Disassembly of section .vector_default:

9d00472c <_DefaultInterrupt>:
9d00472c:	3c020000 	lui	v0,0x0
9d004730:	24420000 	addiu	v0,v0,0
9d004734:	10400007 	beqz	v0,9d004754 <_DefaultInterrupt+0x28>
9d004738:	3c020000 	lui	v0,0x0
9d00473c:	24420000 	addiu	v0,v0,0
9d004740:	50400005 	beqzl	v0,9d004758 <_DefaultInterrupt+0x2c>
9d004744:	3c029d00 	lui	v0,0x9d00
9d004748:	7000003f 	sdbbp
9d00474c:	03e00008 	jr	ra
9d004750:	00000000 	nop
9d004754:	3c029d00 	lui	v0,0x9d00
9d004758:	24424774 	addiu	v0,v0,18292
9d00475c:	10400003 	beqz	v0,9d00476c <_DefaultInterrupt+0x40>
9d004760:	00000000 	nop
9d004764:	0040f809 	jalr	v0
9d004768:	00000000 	nop
9d00476c:	03e00008 	jr	ra
9d004770:	00000000 	nop

Disassembly of section .text:

9d004774 <__pic32_software_reset>:
9d004774:	41606000 	di
9d004778:	000000c0 	ehb
9d00477c:	3c03aa99 	lui	v1,0xaa99
9d004780:	3c02bf81 	lui	v0,0xbf81
9d004784:	24636655 	addiu	v1,v1,26197
9d004788:	ac40f230 	sw	zero,-3536(v0)
9d00478c:	ac43f230 	sw	v1,-3536(v0)
9d004790:	3c035566 	lui	v1,0x5566
9d004794:	346399aa 	ori	v1,v1,0x99aa
9d004798:	ac43f230 	sw	v1,-3536(v0)
9d00479c:	3c02bf81 	lui	v0,0xbf81
9d0047a0:	24030001 	li	v1,1
9d0047a4:	ac43f618 	sw	v1,-2536(v0)
9d0047a8:	3c02bf81 	lui	v0,0xbf81
9d0047ac:	8c42f610 	lw	v0,-2544(v0)
9d0047b0:	0b4011df 	j	9d00477c <__pic32_software_reset+0x8>
9d0047b4:	00000000 	nop

Disassembly of section .text._filbuf_simple:

9d0047b8 <_filbuf_simple>:
9d0047b8:	8c820004 	lw	v0,4(a0)
9d0047bc:	2403ffff 	li	v1,-1
9d0047c0:	10430003 	beq	v0,v1,9d0047d0 <_filbuf_simple+0x18>
9d0047c4:	ac800000 	sw	zero,0(a0)
9d0047c8:	03e00008 	jr	ra
9d0047cc:	ac830004 	sw	v1,4(a0)
9d0047d0:	27bdffe8 	addiu	sp,sp,-24
9d0047d4:	afbf0014 	sw	ra,20(sp)
9d0047d8:	0f401004 	jal	9d004010 <_mon_getc>
9d0047dc:	24040001 	li	a0,1
9d0047e0:	8fbf0014 	lw	ra,20(sp)
9d0047e4:	03e00008 	jr	ra
9d0047e8:	27bd0018 	addiu	sp,sp,24

Disassembly of section .text._fsync_simple:

9d0047ec <_fsync_simple>:
9d0047ec:	94830010 	lhu	v1,16(a0)
9d0047f0:	00a32824 	and	a1,a1,v1
9d0047f4:	10a00007 	beqz	a1,9d004814 <_fsync_simple+0x28>
9d0047f8:	24020001 	li	v0,1
9d0047fc:	34630040 	ori	v1,v1,0x40
9d004800:	a4830010 	sh	v1,16(a0)
9d004804:	24030009 	li	v1,9
9d004808:	3c02a000 	lui	v0,0xa000
9d00480c:	ac430008 	sw	v1,8(v0)
9d004810:	00001021 	move	v0,zero
9d004814:	03e00008 	jr	ra
9d004818:	00000000 	nop

Disassembly of section .rodata:

9d00481c <spaceData-0x8>:
9d00481c:	6c756e28 	0x6c756e28
9d004820:	0000296c 	0x296c

9d004824 <spaceData>:
9d004824:	20202020 20202020 20202020 20202020                     
9d004834:	20202020 20202020 20202020 20202020                     

Disassembly of section .text.putchar:

9d004844 <putchar>:
9d004844:	27bdffe8 	addiu	sp,sp,-24
9d004848:	afbf0014 	sw	ra,20(sp)
9d00484c:	3c02a000 	lui	v0,0xa000
9d004850:	8c420000 	lw	v0,0(v0)
9d004854:	0f4010d4 	jal	9d004350 <fputc>
9d004858:	8c450004 	lw	a1,4(v0)
9d00485c:	8fbf0014 	lw	ra,20(sp)
9d004860:	03e00008 	jr	ra
9d004864:	27bd0018 	addiu	sp,sp,24

Disassembly of section .text._vfprintf_cdnopuxX:

9d004868 <_vfprintf_cdnopuxX>:
9d004868:	27bdffe8 	addiu	sp,sp,-24
9d00486c:	afbf0014 	sw	ra,20(sp)
9d004870:	0f400780 	jal	9d001e00 <_do_print_cdnopuxX>
9d004874:	00000000 	nop
9d004878:	8fbf0014 	lw	ra,20(sp)
9d00487c:	03e00008 	jr	ra
9d004880:	27bd0018 	addiu	sp,sp,24

Disassembly of section .text.putc:

9d004884 <putc>:
9d004884:	27bdffe8 	addiu	sp,sp,-24
9d004888:	afbf0014 	sw	ra,20(sp)
9d00488c:	0f4010d4 	jal	9d004350 <fputc>
9d004890:	00000000 	nop
9d004894:	8fbf0014 	lw	ra,20(sp)
9d004898:	03e00008 	jr	ra
9d00489c:	27bd0018 	addiu	sp,sp,24

Disassembly of section .text:

9d0048a0 <_nmi_handler>:
9d0048a0:	401a6000 	mfc0	k0,c0_status
9d0048a4:	3c1bffbf 	lui	k1,0xffbf
9d0048a8:	377bffff 	ori	k1,k1,0xffff
9d0048ac:	035bd024 	and	k0,k0,k1
9d0048b0:	409a6000 	mtc0	k0,c0_status
9d0048b4:	42000018 	eret

Disassembly of section .text._io_exit:

9d0048b8 <_io_exit>:
9d0048b8:	3c02a000 	lui	v0,0xa000
9d0048bc:	8c420000 	lw	v0,0(v0)
9d0048c0:	24030001 	li	v1,1
9d0048c4:	03e00008 	jr	ra
9d0048c8:	ac430038 	sw	v1,56(v0)

Disassembly of section .rodata:

9d0048cc <_io_funcs>:
9d0048cc:	9d0047b8 9d003f14 9d004490 9d004510     .G...?...D...E..
9d0048dc:	9d0047ec                                .G..

Disassembly of section .text._io_exit:

9d0048e0 <.text._io_exit>:
9d0048e0:	3c02a000 	lui	v0,0xa000
9d0048e4:	8c420000 	lw	v0,0(v0)
9d0048e8:	24030001 	li	v1,1
9d0048ec:	03e00008 	jr	ra
9d0048f0:	ac430038 	sw	v1,56(v0)

Disassembly of section .rodata:

9d0048f4 <_io_strfuncs>:
9d0048f4:	9d004918 9d004920 9d004928 9d004930     .I.. I..(I..0I..
9d004904:	9d004938                                8I..

Disassembly of section .text._on_reset:

9d004908 <_on_reset>:
9d004908:	03e00008 	jr	ra
9d00490c:	00000000 	nop

Disassembly of section .text._on_bootstrap:

9d004910 <_on_bootstrap>:
9d004910:	03e00008 	jr	ra
9d004914:	00000000 	nop

Disassembly of section .text._filbuf_string:

9d004918 <_filbuf_string>:
9d004918:	03e00008 	jr	ra
9d00491c:	2402ffff 	li	v0,-1

Disassembly of section .text._flsbuf_string:

9d004920 <_flsbuf_string>:
9d004920:	03e00008 	jr	ra
9d004924:	00801021 	move	v0,a0

Disassembly of section .text._fflush_string:

9d004928 <_fflush_string>:
9d004928:	03e00008 	jr	ra
9d00492c:	00001021 	move	v0,zero

Disassembly of section .text._fwrite_string:

9d004930 <_fwrite_string>:
9d004930:	03e00008 	jr	ra
9d004934:	00001021 	move	v0,zero

Disassembly of section .text._fsync_string:

9d004938 <_fsync_string>:
9d004938:	03e00008 	jr	ra
9d00493c:	24020001 	li	v0,1

Disassembly of section .rodata:

9d004940 <.rodata>:
9d004940:	00006425 	0x6425
